	.cpu cortex-m4
	.eabi_attribute 27, 1
	.eabi_attribute 28, 1
	.eabi_attribute 20, 1
	.eabi_attribute 21, 1
	.eabi_attribute 23, 3
	.eabi_attribute 24, 1
	.eabi_attribute 25, 1
	.eabi_attribute 26, 1
	.eabi_attribute 30, 1
	.eabi_attribute 34, 1
	.eabi_attribute 18, 4
	.file	"ff.c"
	.text
.Ltext0:
	.cfi_sections	.debug_frame
	.section	.text.ld_word,"ax",%progbits
	.align	1
	.syntax unified
	.thumb
	.thumb_func
	.fpu fpv4-sp-d16
	.type	ld_word, %function
ld_word:
.LFB0:
	.file 1 "../Main/sdCard/fatFS/ff.c"
	.loc 1 581 0
	.cfi_startproc
	@ args = 0, pretend = 0, frame = 0
	@ frame_needed = 0, uses_anonymous_args = 0
	@ link register save eliminated.
.LVL0:
	.loc 1 584 0
	ldrb	r2, [r0, #1]	@ zero_extendqisi2
.LVL1:
	.loc 1 585 0
	ldrb	r0, [r0]	@ zero_extendqisi2
.LVL2:
	.loc 1 587 0
	orr	r0, r0, r2, lsl #8
.LVL3:
	bx	lr
	.cfi_endproc
.LFE0:
	.size	ld_word, .-ld_word
	.section	.text.ld_dword,"ax",%progbits
	.align	1
	.syntax unified
	.thumb
	.thumb_func
	.fpu fpv4-sp-d16
	.type	ld_dword, %function
ld_dword:
.LFB1:
	.loc 1 590 0
	.cfi_startproc
	@ args = 0, pretend = 0, frame = 0
	@ frame_needed = 0, uses_anonymous_args = 0
	@ link register save eliminated.
.LVL4:
	.loc 1 593 0
	ldrb	r2, [r0, #3]	@ zero_extendqisi2
.LVL5:
	.loc 1 594 0
	ldrb	r3, [r0, #2]	@ zero_extendqisi2
	orr	r2, r3, r2, lsl #8
.LVL6:
	.loc 1 595 0
	ldrb	r3, [r0, #1]	@ zero_extendqisi2
	orr	r3, r3, r2, lsl #8
.LVL7:
	.loc 1 596 0
	ldrb	r0, [r0]	@ zero_extendqisi2
.LVL8:
	.loc 1 598 0
	orr	r0, r0, r3, lsl #8
.LVL9:
	bx	lr
	.cfi_endproc
.LFE1:
	.size	ld_dword, .-ld_dword
	.section	.text.ld_qword,"ax",%progbits
	.align	1
	.syntax unified
	.thumb
	.thumb_func
	.fpu fpv4-sp-d16
	.type	ld_qword, %function
ld_qword:
.LFB2:
	.loc 1 602 0
	.cfi_startproc
	@ args = 0, pretend = 0, frame = 0
	@ frame_needed = 0, uses_anonymous_args = 0
	@ link register save eliminated.
.LVL10:
	push	{r4, r5, r6, r7, fp}
	.cfi_def_cfa_offset 20
	.cfi_offset 4, -20
	.cfi_offset 5, -16
	.cfi_offset 6, -12
	.cfi_offset 7, -8
	.cfi_offset 11, -4
	.loc 1 605 0
	ldrb	r2, [r0, #7]	@ zero_extendqisi2
	.loc 1 606 0
	movs	r5, #0
	lsls	r4, r2, #8
	ldrb	r2, [r0, #6]	@ zero_extendqisi2
	movs	r3, #0
	orr	fp, r4, r2
	orr	ip, r5, r3
.LVL11:
	.loc 1 607 0
	lsl	r3, ip, #8
	orr	r3, r3, fp, lsr #24
	lsl	r2, fp, #8
	ldrb	r4, [r0, #5]	@ zero_extendqisi2
	movs	r5, #0
	orr	fp, r4, r2
.LVL12:
	orr	ip, r5, r3
.LVL13:
	.loc 1 608 0
	lsl	r3, ip, #8
	orr	r3, r3, fp, lsr #24
	lsl	r2, fp, #8
	ldrb	r4, [r0, #4]	@ zero_extendqisi2
	movs	r5, #0
	orr	fp, r4, r2
.LVL14:
	orr	ip, r5, r3
.LVL15:
	.loc 1 609 0
	lsl	r3, ip, #8
	orr	r3, r3, fp, lsr #24
	lsl	r2, fp, #8
	ldrb	r4, [r0, #3]	@ zero_extendqisi2
	movs	r5, #0
	orr	fp, r4, r2
.LVL16:
	orr	ip, r5, r3
.LVL17:
	.loc 1 610 0
	lsl	r3, ip, #8
	orr	r3, r3, fp, lsr #24
	lsl	r2, fp, #8
	ldrb	r4, [r0, #2]	@ zero_extendqisi2
	movs	r5, #0
	orr	r6, r4, r2
	orr	r7, r5, r3
.LVL18:
	.loc 1 611 0
	lsl	ip, r7, #8
	orr	ip, ip, r6, lsr #24
	lsl	fp, r6, #8
	ldrb	r4, [r0, #1]	@ zero_extendqisi2
	movs	r5, #0
	orr	r2, fp, r4
	orr	r3, ip, r5
.LVL19:
	.loc 1 612 0
	lsls	r5, r3, #8
	orr	r5, r5, r2, lsr #24
	lsls	r4, r2, #8
	ldrb	r2, [r0]	@ zero_extendqisi2
.LVL20:
	movs	r3, #0
.LVL21:
	.loc 1 614 0
	orr	r0, r2, r4
.LVL22:
	orr	r1, r3, r5
	pop	{r4, r5, r6, r7, fp}
	.cfi_restore 11
	.cfi_restore 7
	.cfi_restore 6
	.cfi_restore 5
	.cfi_restore 4
	.cfi_def_cfa_offset 0
.LVL23:
	bx	lr
	.cfi_endproc
.LFE2:
	.size	ld_qword, .-ld_qword
	.section	.text.st_word,"ax",%progbits
	.align	1
	.syntax unified
	.thumb
	.thumb_func
	.fpu fpv4-sp-d16
	.type	st_word, %function
st_word:
.LFB3:
	.loc 1 619 0
	.cfi_startproc
	@ args = 0, pretend = 0, frame = 0
	@ frame_needed = 0, uses_anonymous_args = 0
	@ link register save eliminated.
.LVL24:
	.loc 1 620 0
	strb	r1, [r0]
.LVL25:
	.loc 1 621 0
	lsrs	r1, r1, #8
.LVL26:
	strb	r1, [r0, #1]
	.loc 1 622 0
	bx	lr
	.cfi_endproc
.LFE3:
	.size	st_word, .-st_word
	.section	.text.st_dword,"ax",%progbits
	.align	1
	.syntax unified
	.thumb
	.thumb_func
	.fpu fpv4-sp-d16
	.type	st_dword, %function
st_dword:
.LFB4:
	.loc 1 625 0
	.cfi_startproc
	@ args = 0, pretend = 0, frame = 0
	@ frame_needed = 0, uses_anonymous_args = 0
	@ link register save eliminated.
.LVL27:
	.loc 1 626 0
	strb	r1, [r0]
.LVL28:
	.loc 1 627 0
	ubfx	r3, r1, #8, #8
	strb	r3, [r0, #1]
.LVL29:
	.loc 1 628 0
	ubfx	r3, r1, #16, #8
	strb	r3, [r0, #2]
.LVL30:
	.loc 1 629 0
	lsrs	r1, r1, #24
.LVL31:
	strb	r1, [r0, #3]
	.loc 1 630 0
	bx	lr
	.cfi_endproc
.LFE4:
	.size	st_dword, .-st_dword
	.section	.text.st_qword,"ax",%progbits
	.align	1
	.syntax unified
	.thumb
	.thumb_func
	.fpu fpv4-sp-d16
	.type	st_qword, %function
st_qword:
.LFB5:
	.loc 1 634 0
	.cfi_startproc
	@ args = 0, pretend = 0, frame = 0
	@ frame_needed = 0, uses_anonymous_args = 0
	@ link register save eliminated.
.LVL32:
	.loc 1 635 0
	strb	r2, [r0]
.LVL33:
	.loc 1 636 0
	ubfx	r1, r2, #8, #8
	strb	r1, [r0, #1]
.LVL34:
	.loc 1 637 0
	ubfx	r1, r2, #16, #8
	strb	r1, [r0, #2]
.LVL35:
	.loc 1 638 0
	lsrs	r2, r2, #24
.LVL36:
	strb	r2, [r0, #3]
.LVL37:
	.loc 1 639 0
	strb	r3, [r0, #4]
.LVL38:
	.loc 1 640 0
	ubfx	r2, r3, #8, #8
	strb	r2, [r0, #5]
.LVL39:
	.loc 1 641 0
	ubfx	r2, r3, #16, #8
	strb	r2, [r0, #6]
.LVL40:
	.loc 1 642 0
	lsrs	r3, r3, #24
.LVL41:
	strb	r3, [r0, #7]
	.loc 1 643 0
	bx	lr
	.cfi_endproc
.LFE5:
	.size	st_qword, .-st_qword
	.section	.text.mem_cpy,"ax",%progbits
	.align	1
	.syntax unified
	.thumb
	.thumb_func
	.fpu fpv4-sp-d16
	.type	mem_cpy, %function
mem_cpy:
.LFB6:
	.loc 1 655 0
	.cfi_startproc
	@ args = 0, pretend = 0, frame = 0
	@ frame_needed = 0, uses_anonymous_args = 0
	@ link register save eliminated.
.LVL42:
	.loc 1 659 0
	mov	r3, r2
	cbz	r2, .L8
.LVL43:
.L10:
	.loc 1 661 0 discriminator 1
	ldrb	r2, [r1]	@ zero_extendqisi2
	strb	r2, [r0]
.LVL44:
	adds	r0, r0, #1
.LVL45:
	adds	r1, r1, #1
.LVL46:
	.loc 1 662 0 discriminator 1
	subs	r3, r3, #1
.LVL47:
	bne	.L10
.L8:
	.loc 1 664 0
	bx	lr
	.cfi_endproc
.LFE6:
	.size	mem_cpy, .-mem_cpy
	.section	.text.mem_set,"ax",%progbits
	.align	1
	.syntax unified
	.thumb
	.thumb_func
	.fpu fpv4-sp-d16
	.type	mem_set, %function
mem_set:
.LFB7:
	.loc 1 669 0
	.cfi_startproc
	@ args = 0, pretend = 0, frame = 0
	@ frame_needed = 0, uses_anonymous_args = 0
	@ link register save eliminated.
.LVL48:
.L12:
	.loc 1 673 0 discriminator 1
	strb	r1, [r0]
.LVL49:
	adds	r0, r0, #1
.LVL50:
	.loc 1 674 0 discriminator 1
	subs	r2, r2, #1
.LVL51:
	bne	.L12
	.loc 1 675 0
	bx	lr
	.cfi_endproc
.LFE7:
	.size	mem_set, .-mem_set
	.section	.text.mem_cmp,"ax",%progbits
	.align	1
	.syntax unified
	.thumb
	.thumb_func
	.fpu fpv4-sp-d16
	.type	mem_cmp, %function
mem_cmp:
.LFB8:
	.loc 1 680 0
	.cfi_startproc
	@ args = 0, pretend = 0, frame = 0
	@ frame_needed = 0, uses_anonymous_args = 0
	@ link register save eliminated.
.LVL52:
	push	{r4, r5}
	.cfi_def_cfa_offset 8
	.cfi_offset 4, -8
	.cfi_offset 5, -4
.LVL53:
.L15:
	.loc 1 685 0 discriminator 2
	adds	r5, r0, #1
.LVL54:
	ldrb	r3, [r0]	@ zero_extendqisi2
.LVL55:
	ldrb	r0, [r1]	@ zero_extendqisi2
	subs	r3, r3, r0
.LVL56:
	.loc 1 686 0 discriminator 2
	subs	r2, r2, #1
.LVL57:
	beq	.L13
	adds	r4, r1, #1
.LVL58:
	.loc 1 685 0 discriminator 1
	mov	r0, r5
	mov	r1, r4
	.loc 1 686 0 discriminator 1
	cmp	r3, #0
	beq	.L15
.LVL59:
.L13:
	.loc 1 689 0
	mov	r0, r3
	pop	{r4, r5}
	.cfi_restore 5
	.cfi_restore 4
	.cfi_def_cfa_offset 0
.LVL60:
	bx	lr
	.cfi_endproc
.LFE8:
	.size	mem_cmp, .-mem_cmp
	.section	.text.chk_chr,"ax",%progbits
	.align	1
	.syntax unified
	.thumb
	.thumb_func
	.fpu fpv4-sp-d16
	.type	chk_chr, %function
chk_chr:
.LFB9:
	.loc 1 694 0
	.cfi_startproc
	@ args = 0, pretend = 0, frame = 0
	@ frame_needed = 0, uses_anonymous_args = 0
	@ link register save eliminated.
.LVL61:
	.loc 1 695 0
	b	.L18
.L20:
	.loc 1 695 0 is_stmt 0 discriminator 3
	adds	r0, r0, #1
.LVL62:
.L18:
	.loc 1 695 0 discriminator 1
	ldrb	r3, [r0]	@ zero_extendqisi2
	cbz	r3, .L19
	.loc 1 695 0 discriminator 2
	cmp	r3, r1
	bne	.L20
.L19:
	.loc 1 697 0 is_stmt 1
	mov	r0, r3
.LVL63:
	bx	lr
	.cfi_endproc
.LFE9:
	.size	chk_chr, .-chk_chr
	.section	.text.dbc_1st,"ax",%progbits
	.align	1
	.syntax unified
	.thumb
	.thumb_func
	.fpu fpv4-sp-d16
	.type	dbc_1st, %function
dbc_1st:
.LFB10:
	.loc 1 702 0
	.cfi_startproc
	@ args = 0, pretend = 0, frame = 0
	@ frame_needed = 0, uses_anonymous_args = 0
	@ link register save eliminated.
.LVL64:
	.loc 1 717 0
	movs	r0, #0
.LVL65:
	bx	lr
	.cfi_endproc
.LFE10:
	.size	dbc_1st, .-dbc_1st
	.section	.text.dbc_2nd,"ax",%progbits
	.align	1
	.syntax unified
	.thumb
	.thumb_func
	.fpu fpv4-sp-d16
	.type	dbc_2nd, %function
dbc_2nd:
.LFB11:
	.loc 1 722 0
	.cfi_startproc
	@ args = 0, pretend = 0, frame = 0
	@ frame_needed = 0, uses_anonymous_args = 0
	@ link register save eliminated.
.LVL66:
	.loc 1 739 0
	movs	r0, #0
.LVL67:
	bx	lr
	.cfi_endproc
.LFE11:
	.size	dbc_2nd, .-dbc_2nd
	.section	.text.clst2sect,"ax",%progbits
	.align	1
	.syntax unified
	.thumb
	.thumb_func
	.fpu fpv4-sp-d16
	.type	clst2sect, %function
clst2sect:
.LFB17:
	.loc 1 1136 0
	.cfi_startproc
	@ args = 0, pretend = 0, frame = 0
	@ frame_needed = 0, uses_anonymous_args = 0
	@ link register save eliminated.
.LVL68:
	.loc 1 1137 0
	subs	r1, r1, #2
.LVL69:
	.loc 1 1138 0
	ldr	r3, [r0, #28]
	subs	r3, r3, #2
	cmp	r3, r1
	bls	.L25
	.loc 1 1139 0
	ldr	r3, [r0, #48]
	ldrh	r0, [r0, #10]
.LVL70:
	mla	r0, r1, r0, r3
	bx	lr
.LVL71:
.L25:
	.loc 1 1138 0
	movs	r0, #0
.LVL72:
	.loc 1 1140 0
	bx	lr
	.cfi_endproc
.LFE17:
	.size	clst2sect, .-clst2sect
	.section	.text.ld_clust,"ax",%progbits
	.align	1
	.syntax unified
	.thumb
	.thumb_func
	.fpu fpv4-sp-d16
	.type	ld_clust, %function
ld_clust:
.LFB30:
	.loc 1 1838 0
	.cfi_startproc
	@ args = 0, pretend = 0, frame = 0
	@ frame_needed = 0, uses_anonymous_args = 0
.LVL73:
	push	{r4, r5, r6, lr}
	.cfi_def_cfa_offset 16
	.cfi_offset 4, -16
	.cfi_offset 5, -12
	.cfi_offset 6, -8
	.cfi_offset 14, -4
	mov	r6, r0
	mov	r5, r1
	.loc 1 1841 0
	add	r0, r1, #26
.LVL74:
	bl	ld_word
.LVL75:
	.loc 1 1842 0
	ldrb	r3, [r6]	@ zero_extendqisi2
	cmp	r3, #3
	beq	.L29
.LVL76:
.L26:
	.loc 1 1847 0
	pop	{r4, r5, r6, pc}
.LVL77:
.L29:
	mov	r4, r0
	.loc 1 1843 0
	add	r0, r5, #20
.LVL78:
	bl	ld_word
.LVL79:
	orr	r0, r4, r0, lsl #16
.LVL80:
	.loc 1 1846 0
	b	.L26
	.cfi_endproc
.LFE30:
	.size	ld_clust, .-ld_clust
	.section	.text.st_clust,"ax",%progbits
	.align	1
	.syntax unified
	.thumb
	.thumb_func
	.fpu fpv4-sp-d16
	.type	st_clust, %function
st_clust:
.LFB31:
	.loc 1 1856 0
	.cfi_startproc
	@ args = 0, pretend = 0, frame = 0
	@ frame_needed = 0, uses_anonymous_args = 0
.LVL81:
	push	{r4, r5, r6, lr}
	.cfi_def_cfa_offset 16
	.cfi_offset 4, -16
	.cfi_offset 5, -12
	.cfi_offset 6, -8
	.cfi_offset 14, -4
	mov	r6, r0
	mov	r4, r1
	mov	r5, r2
	.loc 1 1857 0
	uxth	r1, r2
.LVL82:
	add	r0, r4, #26
.LVL83:
	bl	st_word
.LVL84:
	.loc 1 1858 0
	ldrb	r3, [r6]	@ zero_extendqisi2
	cmp	r3, #3
	beq	.L33
.L30:
	.loc 1 1861 0
	pop	{r4, r5, r6, pc}
.LVL85:
.L33:
	.loc 1 1859 0
	lsrs	r1, r5, #16
	add	r0, r4, #20
	bl	st_word
.LVL86:
	.loc 1 1861 0
	b	.L30
	.cfi_endproc
.LFE31:
	.size	st_clust, .-st_clust
	.section	.text.pick_lfn,"ax",%progbits
	.align	1
	.syntax unified
	.thumb
	.thumb_func
	.fpu fpv4-sp-d16
	.type	pick_lfn, %function
pick_lfn:
.LFB33:
	.loc 1 1911 0
	.cfi_startproc
	@ args = 0, pretend = 0, frame = 0
	@ frame_needed = 0, uses_anonymous_args = 0
.LVL87:
	push	{r4, r5, r6, r7, r8, lr}
	.cfi_def_cfa_offset 24
	.cfi_offset 4, -24
	.cfi_offset 5, -20
	.cfi_offset 6, -16
	.cfi_offset 7, -12
	.cfi_offset 8, -8
	.cfi_offset 14, -4
	mov	r7, r0
	mov	r6, r1
	.loc 1 1916 0
	add	r0, r1, #26
.LVL88:
	bl	ld_word
.LVL89:
	cbnz	r0, .L40
	.loc 1 1918 0
	ldrb	r5, [r6]	@ zero_extendqisi2
	bic	r5, r5, #64
	subs	r5, r5, #1
	add	r3, r5, r5, lsl #1
	add	r5, r5, r3, lsl #2
.LVL90:
	.loc 1 1920 0
	mov	r8, #1
	movs	r4, #0
	b	.L36
.LVL91:
.L37:
	.loc 1 1926 0
	movw	r3, #65535
	cmp	r0, r3
	bne	.L42
.LVL92:
.L38:
	.loc 1 1920 0 discriminator 2
	adds	r4, r4, #1
.LVL93:
.L36:
	.loc 1 1920 0 is_stmt 0 discriminator 1
	cmp	r4, #12
	bhi	.L46
	.loc 1 1921 0 is_stmt 1
	ldr	r3, .L47
	ldrb	r0, [r3, r4]	@ zero_extendqisi2
	add	r0, r0, r6
	bl	ld_word
.LVL94:
	.loc 1 1922 0
	cmp	r8, #0
	beq	.L37
	.loc 1 1923 0
	cmp	r5, #254
	bhi	.L41
.LVL95:
	.loc 1 1924 0
	strh	r0, [r7, r5, lsl #1]	@ movhi
	mov	r8, r0
	adds	r5, r5, #1
.LVL96:
	b	.L38
.LVL97:
.L46:
	.loc 1 1930 0
	ldrb	r3, [r6]	@ zero_extendqisi2
	tst	r3, #64
	beq	.L43
	.loc 1 1931 0
	cmp	r5, #254
	bhi	.L44
	.loc 1 1932 0
	movs	r3, #0
	strh	r3, [r7, r5, lsl #1]	@ movhi
	.loc 1 1935 0
	movs	r0, #1
	b	.L34
.LVL98:
.L40:
	.loc 1 1916 0
	movs	r0, #0
.L34:
	.loc 1 1936 0
	pop	{r4, r5, r6, r7, r8, pc}
.LVL99:
.L41:
	.loc 1 1923 0
	movs	r0, #0
.LVL100:
	b	.L34
.LVL101:
.L42:
	.loc 1 1926 0
	movs	r0, #0
.LVL102:
	b	.L34
.L43:
	.loc 1 1935 0
	movs	r0, #1
	b	.L34
.L44:
	.loc 1 1931 0
	movs	r0, #0
	b	.L34
.L48:
	.align	2
.L47:
	.word	.LANCHOR0
	.cfi_endproc
.LFE33:
	.size	pick_lfn, .-pick_lfn
	.section	.text.put_lfn,"ax",%progbits
	.align	1
	.syntax unified
	.thumb
	.thumb_func
	.fpu fpv4-sp-d16
	.type	put_lfn, %function
put_lfn:
.LFB34:
	.loc 1 1951 0
	.cfi_startproc
	@ args = 0, pretend = 0, frame = 0
	@ frame_needed = 0, uses_anonymous_args = 0
.LVL103:
	push	{r3, r4, r5, r6, r7, r8, r9, lr}
	.cfi_def_cfa_offset 32
	.cfi_offset 3, -32
	.cfi_offset 4, -28
	.cfi_offset 5, -24
	.cfi_offset 6, -20
	.cfi_offset 7, -16
	.cfi_offset 8, -12
	.cfi_offset 9, -8
	.cfi_offset 14, -4
	mov	r8, r0
	mov	r7, r1
	mov	r9, r2
	.loc 1 1956 0
	strb	r3, [r1, #13]
	.loc 1 1957 0
	movs	r3, #15
.LVL104:
	strb	r3, [r1, #11]
	.loc 1 1958 0
	movs	r4, #0
	strb	r4, [r1, #12]
	.loc 1 1959 0
	mov	r1, r4
.LVL105:
	add	r0, r7, #26
.LVL106:
	bl	st_word
.LVL107:
	.loc 1 1961 0
	add	r6, r9, #-1
	add	r3, r6, r6, lsl #1
	add	r6, r6, r3, lsl #2
.LVL108:
	.loc 1 1962 0
	mov	r5, r4
	b	.L52
.LVL109:
.L51:
	.loc 1 1967 0
	adds	r4, r4, #1
.LVL110:
	cmp	r4, #12
	bhi	.L57
.LVL111:
.L52:
	.loc 1 1964 0
	movw	r3, #65535
	cmp	r5, r3
	beq	.L50
.LVL112:
	.loc 1 1964 0 is_stmt 0 discriminator 1
	ldrh	r5, [r8, r6, lsl #1]
.LVL113:
	adds	r6, r6, #1
.LVL114:
.L50:
	.loc 1 1965 0 is_stmt 1
	ldr	r3, .L58
	ldrb	r0, [r3, r4]	@ zero_extendqisi2
	mov	r1, r5
	add	r0, r0, r7
	bl	st_word
.LVL115:
	.loc 1 1966 0
	cmp	r5, #0
	bne	.L51
	movw	r5, #65535
.LVL116:
	b	.L51
.LVL117:
.L57:
	.loc 1 1968 0
	movw	r3, #65535
	cmp	r5, r3
	beq	.L53
	.loc 1 1968 0 is_stmt 0 discriminator 2
	ldrh	r3, [r8, r6, lsl #1]
	cbnz	r3, .L54
.L53:
	.loc 1 1968 0 discriminator 3
	orr	r9, r9, #64
.LVL118:
.L54:
	.loc 1 1969 0 is_stmt 1
	strb	r9, [r7]
	.loc 1 1970 0
	pop	{r3, r4, r5, r6, r7, r8, r9, pc}
.LVL119:
.L59:
	.align	2
.L58:
	.word	.LANCHOR0
	.cfi_endproc
.LFE34:
	.size	put_lfn, .-put_lfn
	.section	.text.gen_numname,"ax",%progbits
	.align	1
	.syntax unified
	.thumb
	.thumb_func
	.fpu fpv4-sp-d16
	.type	gen_numname, %function
gen_numname:
.LFB35:
	.loc 1 1988 0
	.cfi_startproc
	@ args = 0, pretend = 0, frame = 8
	@ frame_needed = 0, uses_anonymous_args = 0
.LVL120:
	push	{r4, r5, r6, r7, lr}
	.cfi_def_cfa_offset 20
	.cfi_offset 4, -20
	.cfi_offset 5, -16
	.cfi_offset 6, -12
	.cfi_offset 7, -8
	.cfi_offset 14, -4
	sub	sp, sp, #12
	.cfi_def_cfa_offset 32
	mov	r7, r0
	mov	r5, r2
	mov	r4, r3
	.loc 1 1995 0
	movs	r2, #11
.LVL121:
	bl	mem_cpy
.LVL122:
	.loc 1 1997 0
	cmp	r4, #5
	bhi	.L61
.LVL123:
.L62:
	.loc 1 2001 0
	movs	r6, #7
	b	.L68
.LVL124:
.L64:
	.loc 1 2001 0 is_stmt 0 discriminator 2
	adds	r2, r2, #1
.LVL125:
.L63:
	.loc 1 2001 0 discriminator 1
	cmp	r2, #15
	bhi	.L61
	.loc 1 2002 0 is_stmt 1
	and	r1, r3, #1
	add	r4, r1, r4, lsl #1
.LVL126:
	.loc 1 2003 0
	lsrs	r3, r3, #1
.LVL127:
	.loc 1 2004 0
	tst	r4, #65536
	beq	.L64
	.loc 1 2004 0 is_stmt 0 discriminator 1
	eor	r4, r4, #69632
.LVL128:
	eor	r4, r4, #33
.LVL129:
	b	.L64
.LVL130:
.L61:
	.loc 1 1999 0 is_stmt 1
	ldrh	r3, [r5]
	cmp	r3, #0
	beq	.L62
	.loc 1 2000 0
	adds	r5, r5, #2
.LVL131:
	.loc 1 2001 0
	movs	r2, #0
	b	.L63
.LVL132:
.L67:
	.loc 1 2015 0
	subs	r5, r6, #1
.LVL133:
	add	r2, sp, #8
	add	r2, r2, r6
	strb	r3, [r2, #-8]
.LVL134:
	.loc 1 2017 0
	lsrs	r4, r4, #4
.LVL135:
	beq	.L79
	.loc 1 2015 0
	mov	r6, r5
.LVL136:
.L68:
	.loc 1 2013 0
	and	r2, r4, #15
	add	r3, r2, #48
.LVL137:
	.loc 1 2014 0
	cmp	r3, #57
	bls	.L67
	.loc 1 2014 0 is_stmt 0 discriminator 1
	add	r3, r2, #55
.LVL138:
	b	.L67
.LVL139:
.L79:
	.loc 1 2018 0 is_stmt 1
	movs	r2, #126
	add	r3, sp, #8
.LVL140:
	add	r3, r3, r5
.LVL141:
	strb	r2, [r3, #-8]
.LVL142:
	.loc 1 2021 0
	b	.L69
.LVL143:
.L70:
	.loc 1 2021 0 is_stmt 0 discriminator 2
	adds	r4, r4, #1
.LVL144:
.L69:
	.loc 1 2021 0 discriminator 1
	cmp	r4, r5
	bcs	.L74
	.loc 1 2021 0 discriminator 3
	ldrb	r0, [r7, r4]	@ zero_extendqisi2
	cmp	r0, #32
	beq	.L74
	.loc 1 2022 0 is_stmt 1
	bl	dbc_1st
.LVL145:
	cmp	r0, #0
	beq	.L70
	.loc 1 2023 0
	subs	r3, r6, #2
	cmp	r3, r4
	beq	.L74
	.loc 1 2024 0
	adds	r4, r4, #1
.LVL146:
	b	.L70
.L76:
	.loc 1 2028 0
	movs	r2, #32
.L73:
	.loc 1 2028 0 is_stmt 0 discriminator 4
	adds	r3, r4, #1
.LVL147:
	strb	r2, [r7, r4]
	.loc 1 2029 0 is_stmt 1 discriminator 4
	cmp	r3, #7
	bhi	.L80
	.loc 1 2028 0
	mov	r4, r3
.LVL148:
.L74:
	cmp	r5, #7
	bhi	.L76
.LVL149:
	.loc 1 2028 0 is_stmt 0 discriminator 1
	add	r3, sp, #8
	add	r3, r3, r5
	ldrb	r2, [r3, #-8]	@ zero_extendqisi2
	adds	r5, r5, #1
.LVL150:
	b	.L73
.LVL151:
.L80:
	.loc 1 2030 0 is_stmt 1
	add	sp, sp, #12
	.cfi_def_cfa_offset 20
	@ sp needed
	pop	{r4, r5, r6, r7, pc}
	.cfi_endproc
.LFE35:
	.size	gen_numname, .-gen_numname
	.section	.text.sum_sfn,"ax",%progbits
	.align	1
	.syntax unified
	.thumb
	.thumb_func
	.fpu fpv4-sp-d16
	.type	sum_sfn, %function
sum_sfn:
.LFB36:
	.loc 1 2043 0
	.cfi_startproc
	@ args = 0, pretend = 0, frame = 0
	@ frame_needed = 0, uses_anonymous_args = 0
	@ link register save eliminated.
.LVL152:
	mov	r1, r0
.LVL153:
	.loc 1 2045 0
	movs	r2, #11
	.loc 1 2044 0
	movs	r0, #0
.LVL154:
.L82:
	.loc 1 2048 0 discriminator 1
	lsls	r3, r0, #7
	orr	r3, r3, r0, lsr #1
.LVL155:
	ldrb	r0, [r1]	@ zero_extendqisi2
.LVL156:
	uxtab	r3, r0, r3
	uxtb	r0, r3
.LVL157:
	adds	r1, r1, #1
.LVL158:
	.loc 1 2049 0 discriminator 1
	subs	r2, r2, #1
.LVL159:
	bne	.L82
	.loc 1 2051 0
	bx	lr
	.cfi_endproc
.LFE36:
	.size	sum_sfn, .-sum_sfn
	.section	.text.xdir_sum,"ax",%progbits
	.align	1
	.syntax unified
	.thumb
	.thumb_func
	.fpu fpv4-sp-d16
	.type	xdir_sum, %function
xdir_sum:
.LFB37:
	.loc 1 2065 0
	.cfi_startproc
	@ args = 0, pretend = 0, frame = 0
	@ frame_needed = 0, uses_anonymous_args = 0
	@ link register save eliminated.
.LVL160:
	push	{r4, r5}
	.cfi_def_cfa_offset 8
	.cfi_offset 4, -8
	.cfi_offset 5, -4
	mov	r5, r0
	.loc 1 2070 0
	ldrb	r1, [r0, #1]	@ zero_extendqisi2
	adds	r1, r1, #1
	lsls	r1, r1, #5
.LVL161:
	.loc 1 2071 0
	movs	r0, #0
.LVL162:
	mov	r3, r0
	b	.L84
.LVL163:
.L90:
	.loc 1 2073 0
	adds	r3, r3, #1
.LVL164:
.L86:
	.loc 1 2071 0 discriminator 2
	adds	r3, r3, #1
.LVL165:
.L84:
	.loc 1 2071 0 is_stmt 0 discriminator 1
	cmp	r3, r1
	bcs	.L89
	.loc 1 2072 0 is_stmt 1
	cmp	r3, #2
	beq	.L90
	.loc 1 2075 0
	lsrs	r2, r0, #1
	add	r2, r2, r0, lsl #15
	ldrb	r4, [r5, r3]	@ zero_extendqisi2
	uxtah	r2, r4, r2
	uxth	r0, r2
.LVL166:
	b	.L86
.L89:
	.loc 1 2079 0
	pop	{r4, r5}
	.cfi_restore 5
	.cfi_restore 4
	.cfi_def_cfa_offset 0
.LVL167:
	bx	lr
	.cfi_endproc
.LFE37:
	.size	xdir_sum, .-xdir_sum
	.section	.text.init_alloc_info,"ax",%progbits
	.align	1
	.syntax unified
	.thumb
	.thumb_func
	.fpu fpv4-sp-d16
	.type	init_alloc_info, %function
init_alloc_info:
.LFB41:
	.loc 1 2213 0
	.cfi_startproc
	@ args = 0, pretend = 0, frame = 0
	@ frame_needed = 0, uses_anonymous_args = 0
.LVL168:
	push	{r3, r4, r5, lr}
	.cfi_def_cfa_offset 16
	.cfi_offset 3, -16
	.cfi_offset 4, -12
	.cfi_offset 5, -8
	.cfi_offset 14, -4
	mov	r5, r0
	mov	r4, r1
	.loc 1 2214 0
	ldr	r0, [r0, #16]
.LVL169:
	adds	r0, r0, #52
	bl	ld_dword
.LVL170:
	str	r0, [r4, #8]
	.loc 1 2215 0
	ldr	r0, [r5, #16]
	adds	r0, r0, #56
	bl	ld_qword
.LVL171:
	strd	r0, [r4, #16]
	.loc 1 2216 0
	ldr	r3, [r5, #16]
	ldrb	r3, [r3, #33]	@ zero_extendqisi2
	and	r3, r3, #2
	strb	r3, [r4, #7]
	.loc 1 2217 0
	movs	r3, #0
	str	r3, [r4, #28]
	.loc 1 2218 0
	pop	{r3, r4, r5, pc}
	.cfi_endproc
.LFE41:
	.size	init_alloc_info, .-init_alloc_info
	.section	.text.get_achar,"ax",%progbits
	.align	1
	.syntax unified
	.thumb
	.thumb_func
	.fpu fpv4-sp-d16
	.type	get_achar, %function
get_achar:
.LFB50:
	.loc 1 2752 0
	.cfi_startproc
	@ args = 0, pretend = 0, frame = 0
	@ frame_needed = 0, uses_anonymous_args = 0
	@ link register save eliminated.
.LVL172:
	.loc 1 2762 0
	ldr	r3, [r0]
	adds	r2, r3, #1
	str	r2, [r0]
	ldrb	r0, [r3]	@ zero_extendqisi2
.LVL173:
	.loc 1 2763 0
	sub	r3, r0, #97
	cmp	r3, #25
	bhi	.L94
	.loc 1 2763 0 is_stmt 0 discriminator 1
	subs	r0, r0, #32
.LVL174:
.L94:
	.loc 1 2767 0 is_stmt 1
	cmp	r0, #127
	bls	.L93
	.loc 1 2767 0 is_stmt 0 discriminator 1
	subs	r0, r0, #128
.LVL175:
	ldr	r3, .L96
	add	r0, r0, r3
.LVL176:
	ldrb	r0, [r0, #16]	@ zero_extendqisi2
.LVL177:
.L93:
	.loc 1 2777 0 is_stmt 1
	bx	lr
.L97:
	.align	2
.L96:
	.word	.LANCHOR0
	.cfi_endproc
.LFE50:
	.size	get_achar, .-get_achar
	.section	.text.pattern_matching,"ax",%progbits
	.align	1
	.syntax unified
	.thumb
	.thumb_func
	.fpu fpv4-sp-d16
	.type	pattern_matching, %function
pattern_matching:
.LFB51:
	.loc 1 2786 0
	.cfi_startproc
	@ args = 0, pretend = 0, frame = 16
	@ frame_needed = 0, uses_anonymous_args = 0
.LVL178:
	push	{r4, r5, r6, r7, r8, lr}
	.cfi_def_cfa_offset 24
	.cfi_offset 4, -24
	.cfi_offset 5, -20
	.cfi_offset 6, -16
	.cfi_offset 7, -12
	.cfi_offset 8, -8
	.cfi_offset 14, -4
	sub	sp, sp, #16
	.cfi_def_cfa_offset 40
	mov	r8, r0
	str	r1, [sp, #4]
	mov	r4, r2
	mov	r7, r3
.LVL179:
.L99:
	.loc 1 2792 0
	subs	r5, r4, #1
.LVL180:
	cbz	r4, .L118
	.loc 1 2793 0
	add	r0, sp, #4
	bl	get_achar
.LVL181:
	.loc 1 2792 0
	mov	r4, r5
	.loc 1 2793 0
	cmp	r0, #0
	bne	.L99
	movs	r0, #0
.LVL182:
.L98:
	.loc 1 2817 0
	add	sp, sp, #16
	.cfi_remember_state
	.cfi_def_cfa_offset 24
	@ sp needed
	pop	{r4, r5, r6, r7, r8, pc}
.LVL183:
.L118:
	.cfi_restore_state
	.loc 1 2795 0
	ldrb	r3, [r8]	@ zero_extendqisi2
	cbnz	r3, .L109
	.loc 1 2795 0 is_stmt 0 discriminator 1
	cbz	r7, .L109
	.loc 1 2795 0
	movs	r0, #1
	b	.L98
.LVL184:
.L121:
	mov	r3, r4
	mov	r2, r4
	b	.L106
.L112:
	mov	r3, r4
	mov	r2, r4
.L106:
.LVL185:
	.loc 1 2803 0 is_stmt 1
	ldr	r1, [sp, #12]
	adds	r0, r1, #1
	str	r0, [sp, #12]
	ldrb	r5, [r1]	@ zero_extendqisi2
	cmp	r5, #63
	beq	.L119
	movs	r3, #1
.LVL186:
.L105:
	.loc 1 2804 0
	ldrb	r1, [r1, #1]	@ zero_extendqisi2
	cmp	r1, #63
	beq	.L106
	.loc 1 2804 0 is_stmt 0 discriminator 1
	cmp	r1, #42
	beq	.L106
	.loc 1 2805 0 is_stmt 1
	ldr	r1, [sp, #8]
	bl	pattern_matching
.LVL187:
	cbnz	r0, .L114
	.loc 1 2806 0
	ldr	r3, [sp, #8]
	ldrb	r6, [r3]	@ zero_extendqisi2
.LVL188:
.L107:
	.loc 1 2813 0
	add	r0, sp, #4
	bl	get_achar
.LVL189:
	.loc 1 2814 0
	cbz	r7, .L116
	.loc 1 2814 0 is_stmt 0 discriminator 1
	cbz	r6, .L120
.LVL190:
.L109:
	.loc 1 2798 0 is_stmt 1
	str	r8, [sp, #12]
	ldr	r3, [sp, #4]
	str	r3, [sp, #8]
.L108:
	.loc 1 2800 0
	ldr	r3, [sp, #12]
	ldrb	r3, [r3]	@ zero_extendqisi2
	cmp	r3, #63
	beq	.L112
	.loc 1 2800 0 is_stmt 0 discriminator 1
	cmp	r3, #42
	beq	.L121
	.loc 1 2808 0 is_stmt 1
	add	r0, sp, #12
	bl	get_achar
.LVL191:
	mov	r5, r0
.LVL192:
	.loc 1 2809 0
	add	r0, sp, #8
.LVL193:
	bl	get_achar
.LVL194:
	mov	r6, r0
.LVL195:
	.loc 1 2810 0
	cmp	r5, r0
	bne	.L107
	.loc 1 2811 0
	cmp	r5, #0
	bne	.L108
	movs	r0, #1
.LVL196:
	b	.L98
.LVL197:
.L119:
	.loc 1 2803 0 discriminator 1
	adds	r2, r2, #1
.LVL198:
	b	.L105
.LVL199:
.L120:
	.loc 1 2816 0
	mov	r0, r4
	b	.L98
.LVL200:
.L114:
	.loc 1 2805 0
	movs	r0, #1
	b	.L98
.LVL201:
.L116:
	.loc 1 2816 0
	mov	r0, r7
	b	.L98
	.cfi_endproc
.LFE51:
	.size	pattern_matching, .-pattern_matching
	.section	.text.get_ldnumber,"ax",%progbits
	.align	1
	.syntax unified
	.thumb
	.thumb_func
	.fpu fpv4-sp-d16
	.type	get_ldnumber, %function
get_ldnumber:
.LFB54:
	.loc 1 3114 0
	.cfi_startproc
	@ args = 0, pretend = 0, frame = 0
	@ frame_needed = 0, uses_anonymous_args = 0
	@ link register save eliminated.
.LVL202:
	push	{r4}
	.cfi_def_cfa_offset 4
	.cfi_offset 4, -4
.LVL203:
	.loc 1 3123 0
	ldr	r4, [r0]
.LVL204:
	.loc 1 3124 0
	cbz	r4, .L126
	.loc 1 3123 0
	mov	r2, r4
.LVL205:
.L125:
	.loc 1 3125 0 discriminator 2
	adds	r1, r2, #1
.LVL206:
	ldrb	r3, [r2]	@ zero_extendqisi2
.LVL207:
	cmp	r3, #31
	bls	.L124
	.loc 1 3125 0 is_stmt 0 discriminator 1
	mov	r2, r1
	cmp	r3, #58
	bne	.L125
.L124:
	.loc 1 3127 0 is_stmt 1
	cmp	r3, #58
	beq	.L132
	.loc 1 3175 0
	movs	r3, #0
.LVL208:
.L122:
	.loc 1 3176 0
	mov	r0, r3
.LVL209:
	ldr	r4, [sp], #4
	.cfi_remember_state
	.cfi_restore 4
	.cfi_def_cfa_offset 0
	bx	lr
.LVL210:
.L132:
	.cfi_restore_state
	.loc 1 3129 0
	ldrb	r3, [r4]	@ zero_extendqisi2
.LVL211:
	sub	r2, r3, #48
	uxtb	r2, r2
	cmp	r2, #9
	bhi	.L128
	.loc 1 3129 0 is_stmt 0 discriminator 1
	adds	r4, r4, #2
.LVL212:
	cmp	r4, r1
	bne	.L129
	.loc 1 3130 0 is_stmt 1
	subs	r3, r3, #48
.LVL213:
	.loc 1 3145 0
	cmp	r3, #0
	bgt	.L130
.LVL214:
	.loc 1 3147 0
	str	r1, [r0]
.LVL215:
	b	.L122
.LVL216:
.L126:
	.loc 1 3124 0
	mov	r3, #-1
	b	.L122
.LVL217:
.L128:
	.loc 1 3117 0
	mov	r3, #-1
	b	.L122
.LVL218:
.L129:
	mov	r3, #-1
	b	.L122
.LVL219:
.L130:
	mov	r3, #-1
.LVL220:
	b	.L122
	.cfi_endproc
.LFE54:
	.size	get_ldnumber, .-get_ldnumber
	.section	.text.validate,"ax",%progbits
	.align	1
	.syntax unified
	.thumb
	.thumb_func
	.fpu fpv4-sp-d16
	.type	validate, %function
validate:
.LFB57:
	.loc 1 3457 0
	.cfi_startproc
	@ args = 0, pretend = 0, frame = 0
	@ frame_needed = 0, uses_anonymous_args = 0
.LVL221:
	push	{r3, r4, r5, lr}
	.cfi_def_cfa_offset 16
	.cfi_offset 3, -16
	.cfi_offset 4, -12
	.cfi_offset 5, -8
	.cfi_offset 14, -4
	mov	r5, r1
.LVL222:
	.loc 1 3461 0
	cbz	r0, .L135
	mov	r4, r0
	.loc 1 3461 0 is_stmt 0 discriminator 1
	ldr	r3, [r0]
	cbz	r3, .L136
	.loc 1 3461 0 discriminator 2
	ldrb	r2, [r3]	@ zero_extendqisi2
	cbz	r2, .L137
	.loc 1 3461 0 discriminator 3
	ldrh	r1, [r0, #4]
.LVL223:
	ldrh	r2, [r3, #6]
	cmp	r1, r2
	beq	.L141
	.loc 1 3458 0 is_stmt 1
	movs	r0, #9
.LVL224:
	.loc 1 3478 0
	movs	r3, #0
.LVL225:
.L134:
	.loc 1 3478 0 is_stmt 0 discriminator 4
	str	r3, [r5]
	.loc 1 3480 0 is_stmt 1 discriminator 4
	pop	{r3, r4, r5, pc}
.LVL226:
.L141:
	.loc 1 3473 0
	ldrb	r0, [r3, #1]	@ zero_extendqisi2
.LVL227:
	bl	disk_status
.LVL228:
	tst	r0, #1
	bne	.L139
.LVL229:
	.loc 1 3478 0
	ldr	r3, [r4]
	.loc 1 3474 0
	movs	r0, #0
	b	.L134
.LVL230:
.L135:
	.loc 1 3458 0
	movs	r0, #9
.LVL231:
	.loc 1 3478 0
	movs	r3, #0
	b	.L134
.LVL232:
.L136:
	.loc 1 3458 0
	movs	r0, #9
.LVL233:
	b	.L134
.LVL234:
.L137:
	movs	r0, #9
.LVL235:
	.loc 1 3478 0
	movs	r3, #0
	b	.L134
.LVL236:
.L139:
	.loc 1 3458 0
	movs	r0, #9
	.loc 1 3478 0
	movs	r3, #0
	b	.L134
	.cfi_endproc
.LFE57:
	.size	validate, .-validate
	.section	.text.sync_window,"ax",%progbits
	.align	1
	.syntax unified
	.thumb
	.thumb_func
	.fpu fpv4-sp-d16
	.type	sync_window, %function
sync_window:
.LFB14:
	.loc 1 1045 0
	.cfi_startproc
	@ args = 0, pretend = 0, frame = 0
	@ frame_needed = 0, uses_anonymous_args = 0
.LVL237:
	push	{r3, r4, r5, lr}
	.cfi_def_cfa_offset 16
	.cfi_offset 3, -16
	.cfi_offset 4, -12
	.cfi_offset 5, -8
	.cfi_offset 14, -4
.LVL238:
	.loc 1 1049 0
	ldrb	r3, [r0, #3]	@ zero_extendqisi2
	cbnz	r3, .L149
	.loc 1 1046 0
	movs	r0, #0
.LVL239:
.L143:
	.loc 1 1060 0
	pop	{r3, r4, r5, pc}
.LVL240:
.L149:
	mov	r4, r0
	.loc 1 1050 0
	add	r5, r0, #60
	movs	r3, #1
	ldr	r2, [r0, #56]
	mov	r1, r5
	ldrb	r0, [r0, #1]	@ zero_extendqisi2
.LVL241:
	bl	disk_write
.LVL242:
	cbnz	r0, .L145
	.loc 1 1051 0
	movs	r3, #0
	strb	r3, [r4, #3]
	.loc 1 1052 0
	ldr	r1, [r4, #56]
	ldr	r3, [r4, #40]
	subs	r3, r1, r3
	ldr	r2, [r4, #32]
	cmp	r3, r2
	bcs	.L146
	.loc 1 1053 0
	ldrb	r3, [r4, #2]	@ zero_extendqisi2
	cmp	r3, #2
	beq	.L150
	.loc 1 1046 0
	movs	r0, #0
	b	.L143
.L150:
	.loc 1 1053 0 discriminator 1
	movs	r3, #1
	add	r2, r2, r1
	mov	r1, r5
	ldrb	r0, [r4, #1]	@ zero_extendqisi2
	bl	disk_write
.LVL243:
	.loc 1 1046 0 discriminator 1
	movs	r0, #0
	b	.L143
.L145:
	.loc 1 1056 0
	movs	r0, #1
	b	.L143
.L146:
	.loc 1 1046 0
	movs	r0, #0
	b	.L143
	.cfi_endproc
.LFE14:
	.size	sync_window, .-sync_window
	.section	.text.move_window,"ax",%progbits
	.align	1
	.syntax unified
	.thumb
	.thumb_func
	.fpu fpv4-sp-d16
	.type	move_window, %function
move_window:
.LFB15:
	.loc 1 1068 0
	.cfi_startproc
	@ args = 0, pretend = 0, frame = 0
	@ frame_needed = 0, uses_anonymous_args = 0
.LVL244:
	push	{r4, r5, r6, lr}
	.cfi_def_cfa_offset 16
	.cfi_offset 4, -16
	.cfi_offset 5, -12
	.cfi_offset 6, -8
	.cfi_offset 14, -4
.LVL245:
	.loc 1 1072 0
	ldr	r3, [r0, #56]
	cmp	r3, r1
	beq	.L154
	mov	r4, r0
	mov	r5, r1
	.loc 1 1074 0
	bl	sync_window
.LVL246:
	.loc 1 1076 0
	mov	r6, r0
	cbnz	r0, .L152
	.loc 1 1077 0
	movs	r3, #1
	mov	r2, r5
	add	r1, r4, #60
	ldrb	r0, [r4, #1]	@ zero_extendqisi2
.LVL247:
	bl	disk_read
.LVL248:
	cbz	r0, .L153
	.loc 1 1079 0
	movs	r6, #1
	.loc 1 1078 0
	mov	r5, #-1
.LVL249:
.L153:
	.loc 1 1081 0
	str	r5, [r4, #56]
	b	.L152
.LVL250:
.L154:
	.loc 1 1069 0
	movs	r6, #0
.LVL251:
.L152:
	.loc 1 1085 0
	mov	r0, r6
	pop	{r4, r5, r6, pc}
	.cfi_endproc
.LFE15:
	.size	move_window, .-move_window
	.section	.text.check_fs,"ax",%progbits
	.align	1
	.syntax unified
	.thumb
	.thumb_func
	.fpu fpv4-sp-d16
	.type	check_fs, %function
check_fs:
.LFB55:
	.loc 1 3189 0
	.cfi_startproc
	@ args = 0, pretend = 0, frame = 0
	@ frame_needed = 0, uses_anonymous_args = 0
.LVL252:
	push	{r4, lr}
	.cfi_def_cfa_offset 8
	.cfi_offset 4, -8
	.cfi_offset 14, -4
	mov	r4, r0
	.loc 1 3190 0
	movs	r3, #0
	strb	r3, [r0, #3]
	mov	r3, #-1
	str	r3, [r0, #56]
	.loc 1 3191 0
	bl	move_window
.LVL253:
	cbnz	r0, .L160
	.loc 1 3193 0
	addw	r0, r4, #570
	bl	ld_word
.LVL254:
	movw	r3, #43605
	cmp	r0, r3
	bne	.L161
	.loc 1 3196 0
	movs	r2, #11
	ldr	r1, .L167
	add	r0, r4, #60
	bl	mem_cmp
.LVL255:
	cbz	r0, .L162
	.loc 1 3198 0
	ldrb	r3, [r4, #60]	@ zero_extendqisi2
	cmp	r3, #233
	beq	.L159
	.loc 1 3198 0 is_stmt 0 discriminator 1
	cmp	r3, #235
	beq	.L159
	.loc 1 3198 0 discriminator 2
	cmp	r3, #232
	bne	.L163
.L159:
	.loc 1 3199 0 is_stmt 1
	movs	r2, #3
	ldr	r1, .L167+4
	add	r0, r4, #114
	bl	mem_cmp
.LVL256:
	cbz	r0, .L164
	.loc 1 3200 0
	movs	r2, #5
	ldr	r1, .L167+8
	add	r0, r4, #142
	bl	mem_cmp
.LVL257:
	cbz	r0, .L158
	.loc 1 3202 0
	movs	r0, #2
	b	.L158
.L160:
	.loc 1 3191 0
	movs	r0, #4
	b	.L158
.L161:
	.loc 1 3193 0
	movs	r0, #3
.L158:
	.loc 1 3203 0
	pop	{r4, pc}
.LVL258:
.L162:
	.loc 1 3196 0
	movs	r0, #1
	b	.L158
.L163:
	.loc 1 3202 0
	movs	r0, #2
	b	.L158
.L164:
	.loc 1 3199 0
	movs	r0, #0
	b	.L158
.L168:
	.align	2
.L167:
	.word	.LC0
	.word	.LC1
	.word	.LC2
	.cfi_endproc
.LFE55:
	.size	check_fs, .-check_fs
	.section	.text.find_volume,"ax",%progbits
	.align	1
	.syntax unified
	.thumb
	.thumb_func
	.fpu fpv4-sp-d16
	.type	find_volume, %function
find_volume:
.LFB56:
	.loc 1 3217 0
	.cfi_startproc
	@ args = 0, pretend = 0, frame = 16
	@ frame_needed = 0, uses_anonymous_args = 0
.LVL259:
	push	{r4, r5, r6, r7, r8, r9, r10, lr}
	.cfi_def_cfa_offset 32
	.cfi_offset 4, -32
	.cfi_offset 5, -28
	.cfi_offset 6, -24
	.cfi_offset 7, -20
	.cfi_offset 8, -16
	.cfi_offset 9, -12
	.cfi_offset 10, -8
	.cfi_offset 14, -4
	sub	sp, sp, #16
	.cfi_def_cfa_offset 48
	mov	r7, r1
	mov	r6, r2
	.loc 1 3228 0
	movs	r3, #0
	str	r3, [r1]
	.loc 1 3229 0
	bl	get_ldnumber
.LVL260:
	.loc 1 3230 0
	subs	r5, r0, #0
	blt	.L197
	.loc 1 3233 0
	ldr	r3, .L247
	ldr	r4, [r3, r5, lsl #2]
.LVL261:
	.loc 1 3234 0
	cmp	r4, #0
	beq	.L198
	.loc 1 3238 0
	str	r4, [r7]
	.loc 1 3240 0
	and	r6, r6, #254
.LVL262:
	.loc 1 3241 0
	ldrb	r3, [r4]	@ zero_extendqisi2
	cbz	r3, .L171
	.loc 1 3242 0
	ldrb	r0, [r4, #1]	@ zero_extendqisi2
.LVL263:
	bl	disk_status
.LVL264:
	.loc 1 3243 0
	tst	r0, #1
	bne	.L171
	.loc 1 3244 0
	cmp	r6, #0
	beq	.L199
	.loc 1 3244 0 is_stmt 0 discriminator 1
	tst	r0, #4
	bne	.L200
	.loc 1 3247 0 is_stmt 1
	movs	r0, #0
.LVL265:
	b	.L170
.L171:
	.loc 1 3254 0
	movs	r3, #0
	strb	r3, [r4]
	.loc 1 3255 0
	uxtb	r0, r5
	strb	r0, [r4, #1]
	.loc 1 3256 0
	bl	disk_initialize
.LVL266:
	.loc 1 3257 0
	tst	r0, #1
	bne	.L201
	.loc 1 3260 0
	cbz	r6, .L172
	.loc 1 3260 0 is_stmt 0 discriminator 1
	tst	r0, #4
	bne	.L202
.L172:
.LVL267:
	.loc 1 3270 0 is_stmt 1
	movs	r1, #0
	mov	r0, r4
.LVL268:
	bl	check_fs
.LVL269:
	.loc 1 3271 0
	cmp	r0, #2
	beq	.L203
	.loc 1 3269 0
	movs	r6, #0
.LVL270:
.L174:
	.loc 1 3283 0
	cmp	r0, #4
	beq	.L206
	.loc 1 3284 0
	cmp	r0, #1
	bhi	.L207
	.loc 1 3289 0
	beq	.L241
	.loc 1 3352 0
	add	r0, r4, #71
.LVL271:
	bl	ld_word
.LVL272:
	cmp	r0, #512
	bne	.L223
	.loc 1 3354 0
	add	r0, r4, #82
	bl	ld_word
.LVL273:
	mov	r7, r0
.LVL274:
	.loc 1 3355 0
	cbnz	r0, .L189
	.loc 1 3355 0 is_stmt 0 discriminator 1
	add	r0, r4, #96
.LVL275:
	bl	ld_dword
.LVL276:
	mov	r7, r0
.LVL277:
.L189:
	.loc 1 3356 0 is_stmt 1
	str	r7, [r4, #32]
	.loc 1 3358 0
	ldrb	r2, [r4, #76]	@ zero_extendqisi2
	strb	r2, [r4, #2]
	.loc 1 3359 0
	subs	r3, r2, #1
	uxtb	r3, r3
	cmp	r3, #1
	bhi	.L224
	.loc 1 3360 0
	mul	r5, r7, r2
.LVL278:
	.loc 1 3362 0
	ldrb	r8, [r4, #73]	@ zero_extendqisi2
	strh	r8, [r4, #10]	@ movhi
	.loc 1 3363 0
	cmp	r8, #0
	beq	.L225
	.loc 1 3363 0 is_stmt 0 discriminator 2
	add	r3, r8, #-1
	tst	r8, r3
	bne	.L226
	.loc 1 3365 0 is_stmt 1
	add	r0, r4, #77
	bl	ld_word
.LVL279:
	mov	r10, r0
	strh	r0, [r4, #8]	@ movhi
	.loc 1 3366 0
	tst	r0, #15
	bne	.L227
	.loc 1 3368 0
	add	r0, r4, #79
	bl	ld_word
.LVL280:
	mov	r9, r0
.LVL281:
	.loc 1 3369 0
	cbnz	r0, .L190
	.loc 1 3369 0 is_stmt 0 discriminator 1
	add	r0, r4, #92
.LVL282:
	bl	ld_dword
.LVL283:
	mov	r9, r0
.LVL284:
.L190:
	.loc 1 3371 0 is_stmt 1
	add	r0, r4, #74
.LVL285:
	bl	ld_word
.LVL286:
	.loc 1 3372 0
	mov	r1, r0
	cmp	r0, #0
	beq	.L228
	.loc 1 3375 0
	adds	r2, r0, r5
	add	r2, r2, r10, lsr #4
.LVL287:
	.loc 1 3376 0
	cmp	r9, r2
	bcc	.L229
	.loc 1 3377 0
	sub	r3, r9, r2
	udiv	r3, r3, r8
.LVL288:
	.loc 1 3378 0
	cmp	r3, #0
	beq	.L230
.LVL289:
	.loc 1 3380 0
	ldr	r0, .L247+4
.LVL290:
	cmp	r3, r0
	bls	.L231
	.loc 1 3379 0
	mov	r9, #0
.LVL291:
.L191:
	.loc 1 3381 0
	movw	r0, #65525
	cmp	r3, r0
	bhi	.L192
	mov	r9, #2
.LVL292:
.L192:
	.loc 1 3382 0
	movw	r0, #4085
	cmp	r3, r0
	bls	.L233
	.loc 1 3383 0
	cmp	r9, #0
	bne	.L193
	movs	r0, #13
	b	.L170
.LVL293:
.L204:
	.loc 1 3274 0
	movs	r0, #0
.LVL294:
.L175:
	.loc 1 3274 0 is_stmt 0 discriminator 4
	add	r3, sp, #16
	add	r3, r3, r5, lsl #2
	str	r0, [r3, #-16]
	.loc 1 3272 0 is_stmt 1 discriminator 4
	adds	r5, r5, #1
.LVL295:
.L173:
	.loc 1 3272 0 is_stmt 0 discriminator 2
	cmp	r5, #3
	bhi	.L242
	.loc 1 3273 0 is_stmt 1
	add	r0, r4, #60
	lsls	r3, r5, #4
	add	r3, r3, #446
	add	r0, r0, r3
.LVL296:
	.loc 1 3274 0
	ldrb	r3, [r0, #4]	@ zero_extendqisi2
	cmp	r3, #0
	beq	.L204
	.loc 1 3274 0 is_stmt 0 discriminator 1
	adds	r0, r0, #8
.LVL297:
	bl	ld_dword
.LVL298:
	b	.L175
.LVL299:
.L203:
	.loc 1 3272 0 is_stmt 1
	movs	r5, #0
.LVL300:
	b	.L173
.LVL301:
.L242:
	movs	r5, #0
.LVL302:
	b	.L178
.LVL303:
.L243:
	.loc 1 3280 0 discriminator 1
	mov	r1, r6
	mov	r0, r4
	bl	check_fs
.LVL304:
	.loc 1 3281 0 discriminator 1
	cmp	r0, #1
	bls	.L174
.LVL305:
.L177:
	adds	r5, r5, #1
.LVL306:
	cmp	r5, #3
	bhi	.L174
.LVL307:
.L178:
	.loc 1 3279 0
	add	r3, sp, #16
	add	r3, r3, r5, lsl #2
	ldr	r6, [r3, #-16]
.LVL308:
	.loc 1 3280 0
	cmp	r6, #0
	bne	.L243
	movs	r0, #3
	b	.L177
.LVL309:
.L182:
.LBB2:
	.loc 1 3293 0 discriminator 4
	adds	r3, r3, #1
.LVL310:
.L179:
	.loc 1 3293 0 is_stmt 0 discriminator 1
	cmp	r3, #63
	bhi	.L181
	.loc 1 3293 0 discriminator 3
	adds	r2, r4, r3
	ldrb	r2, [r2, #60]	@ zero_extendqisi2
	cmp	r2, #0
	beq	.L182
.L181:
	.loc 1 3294 0 is_stmt 1
	cmp	r3, #63
	bls	.L209
	.loc 1 3296 0
	add	r0, r4, #164
.LVL311:
	bl	ld_word
.LVL312:
	cmp	r0, #256
	bne	.L210
	.loc 1 3298 0
	ldrb	r3, [r4, #168]	@ zero_extendqisi2
	cmp	r3, #9
	bne	.L211
	.loc 1 3302 0
	add	r0, r4, #132
	bl	ld_qword
.LVL313:
	adds	r8, r0, r6
	adc	r9, r1, #0
.LVL314:
	.loc 1 3303 0
	cmp	r9, #1
	it	eq
	cmpeq	r8, #0
	bcs	.L212
	.loc 1 3305 0
	add	r0, r4, #144
	bl	ld_dword
.LVL315:
	str	r0, [r4, #32]
	.loc 1 3307 0
	ldrb	r3, [r4, #170]	@ zero_extendqisi2
	strb	r3, [r4, #2]
	.loc 1 3308 0
	cmp	r3, #1
	bne	.L213
	.loc 1 3310 0
	ldrb	r3, [r4, #169]	@ zero_extendqisi2
	movs	r5, #1
	lsls	r5, r5, r3
	uxth	r5, r5
	strh	r5, [r4, #10]	@ movhi
	.loc 1 3311 0
	cmp	r5, #0
	beq	.L214
	.loc 1 3313 0
	add	r0, r4, #152
	bl	ld_dword
.LVL316:
	mov	r10, r0
.LVL317:
	.loc 1 3314 0
	ldr	r3, .L247+8
	cmp	r0, r3
	bhi	.L215
	.loc 1 3315 0
	adds	r3, r0, #2
	str	r3, [r4, #28]
	.loc 1 3318 0
	str	r6, [r4, #36]
	.loc 1 3319 0
	add	r0, r4, #148
.LVL318:
	bl	ld_dword
.LVL319:
	adds	r7, r0, r6
.LVL320:
	str	r7, [r4, #48]
	.loc 1 3320 0
	add	r0, r4, #140
	bl	ld_dword
.LVL321:
	add	r0, r0, r6
	str	r0, [r4, #40]
	.loc 1 3321 0
	mul	r2, r10, r5
	movs	r1, #0
	adds	r2, r2, r7
	adc	r3, r1, #0
	cmp	r9, r3
	it	eq
	cmpeq	r8, r2
	bcc	.L216
	.loc 1 3322 0
	add	r0, r4, #156
	bl	ld_dword
.LVL322:
	str	r0, [r4, #44]
.LVL323:
	.loc 1 3325 0
	movs	r6, #0
.LVL324:
	mov	r5, r6
	b	.L185
.LVL325:
.L241:
	.loc 1 3293 0
	movs	r3, #11
	b	.L179
.LVL326:
.L183:
	.loc 1 3332 0
	adds	r3, r4, r5
	ldrb	r3, [r3, #60]	@ zero_extendqisi2
	cmp	r3, #129
	beq	.L184
	.loc 1 3333 0
	adds	r5, r5, #32
.LVL327:
	ubfx	r5, r5, #0, #9
.LVL328:
.L185:
	.loc 1 3327 0
	cmp	r5, #0
	bne	.L183
	.loc 1 3328 0
	ldrh	r3, [r4, #10]
	cmp	r3, r6
	bls	.L217
	.loc 1 3329 0
	ldr	r1, [r4, #44]
	mov	r0, r4
	bl	clst2sect
.LVL329:
	adds	r1, r0, r6
	mov	r0, r4
	bl	move_window
.LVL330:
	cmp	r0, #0
	bne	.L218
	.loc 1 3330 0
	adds	r6, r6, #1
.LVL331:
	b	.L183
.L184:
	.loc 1 3335 0
	add	r6, r4, #60
.LVL332:
	add	r0, r5, #20
	add	r0, r0, r6
	bl	ld_dword
.LVL333:
	mov	r5, r0
.LVL334:
	.loc 1 3336 0
	cmp	r0, #1
	bls	.L219
	.loc 1 3336 0 is_stmt 0 discriminator 2
	ldr	r3, [r4, #28]
	cmp	r3, r0
	bls	.L220
	.loc 1 3337 0 is_stmt 1
	ldr	r2, [r4, #48]
	ldrh	r3, [r4, #10]
	subs	r1, r0, #2
	mla	r3, r1, r3, r2
	str	r3, [r4, #52]
.LVL335:
.L187:
	.loc 1 3339 0
	ldr	r1, [r4, #40]
	add	r1, r1, r5, lsr #7
	mov	r0, r4
	bl	move_window
.LVL336:
	cmp	r0, #0
	bne	.L221
	.loc 1 3340 0
	and	r0, r5, #127
	add	r0, r6, r0, lsl #2
	bl	ld_dword
.LVL337:
	.loc 1 3341 0
	cmp	r0, #-1
	beq	.L186
	.loc 1 3342 0
	adds	r5, r5, #1
.LVL338:
	cmp	r0, r5
	beq	.L187
	movs	r0, #13
.LVL339:
	b	.L170
.LVL340:
.L186:
	.loc 1 3346 0
	mov	r3, #-1
	str	r3, [r4, #24]
	str	r3, [r4, #20]
.LVL341:
	.loc 1 3348 0
	mov	r9, #4
.LBE2:
	b	.L188
.LVL342:
.L231:
	.loc 1 3380 0
	mov	r9, #3
.LVL343:
	b	.L191
.L248:
	.align	2
.L247:
	.word	.LANCHOR1
	.word	268435445
	.word	2147483645
.LVL344:
.L233:
	.loc 1 3382 0
	mov	r9, #1
.LVL345:
.L193:
	.loc 1 3386 0
	add	r8, r3, #2
	str	r8, [r4, #28]
	.loc 1 3387 0
	str	r6, [r4, #36]
	.loc 1 3388 0
	adds	r3, r1, r6
.LVL346:
	str	r3, [r4, #40]
	.loc 1 3389 0
	add	r2, r2, r6
.LVL347:
	str	r2, [r4, #48]
	.loc 1 3390 0
	cmp	r9, #3
	beq	.L244
	.loc 1 3396 0
	cmp	r10, #0
	beq	.L237
	.loc 1 3397 0
	add	r3, r3, r5
	str	r3, [r4, #44]
	.loc 1 3399 0
	cmp	r9, #2
	beq	.L245
	.loc 1 3399 0 is_stmt 0 discriminator 2
	add	r2, r8, r8, lsl #1
	and	r3, r8, #1
	add	r3, r3, r2, lsr #1
.LVL348:
.L195:
	.loc 1 3401 0 is_stmt 1
	addw	r3, r3, #511
.LVL349:
	cmp	r7, r3, lsr #9
	bcc	.L238
	.loc 1 3405 0
	mov	r3, #-1
.LVL350:
	str	r3, [r4, #24]
	str	r3, [r4, #20]
	.loc 1 3406 0
	movs	r3, #128
	strb	r3, [r4, #4]
	.loc 1 3408 0
	cmp	r9, #3
	beq	.L246
.LVL351:
.L188:
	.loc 1 3429 0
	strb	r9, [r4]
	.loc 1 3430 0
	ldr	r3, .L249
	ldrh	r2, [r3, #4]
	adds	r2, r2, #1
	uxth	r2, r2
	strh	r2, [r3, #4]	@ movhi
	strh	r2, [r4, #6]	@ movhi
	.loc 1 3432 0
	add	r2, r3, #8
	str	r2, [r4, #12]
	.loc 1 3434 0
	add	r3, r3, #520
	str	r3, [r4, #16]
	.loc 1 3443 0
	movs	r0, #0
	b	.L170
.LVL352:
.L244:
	.loc 1 3391 0
	add	r0, r4, #102
	bl	ld_word
.LVL353:
	cmp	r0, #0
	bne	.L235
	.loc 1 3392 0
	cmp	r10, #0
	bne	.L236
	.loc 1 3393 0
	add	r0, r4, #104
	bl	ld_dword
.LVL354:
	str	r0, [r4, #44]
	.loc 1 3394 0
	lsl	r3, r8, #2
.LVL355:
	b	.L195
.LVL356:
.L245:
	.loc 1 3399 0 discriminator 1
	lsl	r3, r8, #1
	b	.L195
.LVL357:
.L246:
	.loc 1 3409 0
	add	r0, r4, #108
	bl	ld_word
.LVL358:
	cmp	r0, #1
	bne	.L188
	.loc 1 3410 0
	adds	r1, r6, #1
	mov	r0, r4
	bl	move_window
.LVL359:
	cmp	r0, #0
	bne	.L188
	.loc 1 3412 0
	movs	r3, #0
	strb	r3, [r4, #4]
	.loc 1 3413 0
	addw	r0, r4, #570
	bl	ld_word
.LVL360:
	movw	r3, #43605
	cmp	r0, r3
	bne	.L188
	.loc 1 3414 0
	add	r0, r4, #60
	bl	ld_dword
.LVL361:
	ldr	r3, .L249+4
	cmp	r0, r3
	bne	.L188
	.loc 1 3415 0
	add	r0, r4, #544
	bl	ld_dword
.LVL362:
	ldr	r3, .L249+8
	cmp	r0, r3
	bne	.L188
	.loc 1 3418 0
	add	r0, r4, #548
	bl	ld_dword
.LVL363:
	str	r0, [r4, #24]
	.loc 1 3421 0
	add	r0, r4, #552
	bl	ld_dword
.LVL364:
	str	r0, [r4, #20]
	b	.L188
.LVL365:
.L197:
	.loc 1 3230 0
	movs	r0, #11
.LVL366:
.L170:
	.loc 1 3444 0
	add	sp, sp, #16
	.cfi_remember_state
	.cfi_def_cfa_offset 32
	@ sp needed
	pop	{r4, r5, r6, r7, r8, r9, r10, pc}
.LVL367:
.L198:
	.cfi_restore_state
	.loc 1 3234 0
	movs	r0, #12
.LVL368:
	b	.L170
.LVL369:
.L199:
	.loc 1 3247 0
	movs	r0, #0
.LVL370:
	b	.L170
.LVL371:
.L200:
	.loc 1 3245 0
	movs	r0, #10
.LVL372:
	b	.L170
.LVL373:
.L201:
	.loc 1 3258 0
	movs	r0, #3
.LVL374:
	b	.L170
.LVL375:
.L202:
	.loc 1 3261 0
	movs	r0, #10
.LVL376:
	b	.L170
.LVL377:
.L206:
	.loc 1 3283 0
	movs	r0, #1
.LVL378:
	b	.L170
.LVL379:
.L207:
	.loc 1 3284 0
	movs	r0, #13
.LVL380:
	b	.L170
.LVL381:
.L209:
.LBB3:
	.loc 1 3294 0
	movs	r0, #13
.LVL382:
	b	.L170
.LVL383:
.L210:
	.loc 1 3296 0
	movs	r0, #13
	b	.L170
.L211:
	.loc 1 3299 0
	movs	r0, #13
	b	.L170
.LVL384:
.L212:
	.loc 1 3303 0
	movs	r0, #13
	b	.L170
.L213:
	.loc 1 3308 0
	movs	r0, #13
	b	.L170
.L214:
	.loc 1 3311 0
	movs	r0, #13
	b	.L170
.LVL385:
.L215:
	.loc 1 3314 0
	movs	r0, #13
.LVL386:
	b	.L170
.LVL387:
.L216:
	.loc 1 3321 0
	movs	r0, #13
	b	.L170
.LVL388:
.L217:
	.loc 1 3328 0
	movs	r0, #13
	b	.L170
.L218:
	.loc 1 3329 0
	movs	r0, #1
	b	.L170
.LVL389:
.L219:
	.loc 1 3336 0
	movs	r0, #13
.LVL390:
	b	.L170
.LVL391:
.L220:
	movs	r0, #13
.LVL392:
	b	.L170
.L221:
	.loc 1 3339 0
	movs	r0, #1
	b	.L170
.LVL393:
.L223:
.LBE3:
	.loc 1 3352 0
	movs	r0, #13
	b	.L170
.LVL394:
.L224:
	.loc 1 3359 0
	movs	r0, #13
.LVL395:
	b	.L170
.LVL396:
.L225:
	.loc 1 3363 0
	movs	r0, #13
	b	.L170
.L226:
	movs	r0, #13
	b	.L170
.L227:
	.loc 1 3366 0
	movs	r0, #13
	b	.L170
.LVL397:
.L228:
	.loc 1 3372 0
	movs	r0, #13
.LVL398:
	b	.L170
.LVL399:
.L229:
	.loc 1 3376 0
	movs	r0, #13
.LVL400:
	b	.L170
.LVL401:
.L230:
	.loc 1 3378 0
	movs	r0, #13
.LVL402:
	b	.L170
.LVL403:
.L235:
	.loc 1 3391 0
	movs	r0, #13
	b	.L170
.L236:
	.loc 1 3392 0
	movs	r0, #13
	b	.L170
.LVL404:
.L237:
	.loc 1 3396 0
	movs	r0, #13
	b	.L170
.LVL405:
.L238:
	.loc 1 3401 0
	movs	r0, #13
	b	.L170
.L250:
	.align	2
.L249:
	.word	.LANCHOR1
	.word	1096897106
	.word	1631679090
	.cfi_endproc
.LFE56:
	.size	find_volume, .-find_volume
	.section	.text.find_bitmap,"ax",%progbits
	.align	1
	.syntax unified
	.thumb
	.thumb_func
	.fpu fpv4-sp-d16
	.type	find_bitmap, %function
find_bitmap:
.LFB20:
	.loc 1 1296 0
	.cfi_startproc
	@ args = 0, pretend = 0, frame = 0
	@ frame_needed = 0, uses_anonymous_args = 0
.LVL406:
	push	{r3, r4, r5, r6, r7, r8, r9, lr}
	.cfi_def_cfa_offset 32
	.cfi_offset 3, -32
	.cfi_offset 4, -28
	.cfi_offset 5, -24
	.cfi_offset 6, -20
	.cfi_offset 7, -16
	.cfi_offset 8, -12
	.cfi_offset 9, -8
	.cfi_offset 14, -4
	mov	r5, r0
	mov	r9, r2
	.loc 1 1302 0
	subs	r7, r1, #2
.LVL407:
	.loc 1 1303 0
	ldr	r3, [r0, #28]
	subs	r3, r3, #2
	cmp	r3, r7
	bhi	.L252
	movs	r7, #0
.LVL408:
.L252:
	.loc 1 1304 0
	mov	r8, r7
	mov	r4, r7
	movs	r6, #0
.LVL409:
.L258:
	.loc 1 1306 0
	ldr	r1, [r5, #52]
	add	r1, r1, r4, lsr #12
	mov	r0, r5
	bl	move_window
.LVL410:
	cbnz	r0, .L260
	.loc 1 1307 0
	ubfx	r0, r4, #3, #9
.LVL411:
	and	r2, r4, #7
	movs	r3, #1
	lsls	r3, r3, r2
	uxtb	r3, r3
.LVL412:
	b	.L254
.LVL413:
.L262:
	.loc 1 1317 0
	mov	r8, r4
.LVL414:
	movs	r6, #0
.LVL415:
.L256:
	.loc 1 1319 0
	cmp	r7, r4
	beq	.L263
	.loc 1 1320 0
	cbnz	r3, .L254
.LVL416:
	.loc 1 1322 0
	adds	r0, r0, #1
.LVL417:
	cmp	r0, #512
	bcs	.L258
	.loc 1 1321 0
	movs	r3, #1
.LVL418:
.L254:
	.loc 1 1310 0
	adds	r2, r5, r0
	ldrb	r2, [r2, #60]	@ zero_extendqisi2
	ands	r2, r2, r3
.LVL419:
	lsls	r3, r3, #1
.LVL420:
	uxtb	r3, r3
.LVL421:
	.loc 1 1311 0
	adds	r4, r4, #1
.LVL422:
	ldr	r1, [r5, #28]
	subs	r1, r1, #2
	cmp	r1, r4
	bhi	.L255
	.loc 1 1312 0
	movs	r4, #0
.LVL423:
	mov	r0, #512
.LVL424:
	mov	r3, r4
.LVL425:
.L255:
	.loc 1 1314 0
	cmp	r2, #0
	bne	.L262
	.loc 1 1315 0
	adds	r6, r6, #1
.LVL426:
	cmp	r6, r9
	bne	.L256
	.loc 1 1315 0 is_stmt 0 discriminator 1
	add	r0, r8, #2
.LVL427:
	b	.L251
.LVL428:
.L260:
	.loc 1 1306 0 is_stmt 1
	mov	r0, #-1
	b	.L251
.LVL429:
.L263:
	.loc 1 1319 0
	movs	r0, #0
.LVL430:
.L251:
	.loc 1 1324 0
	pop	{r3, r4, r5, r6, r7, r8, r9, pc}
	.cfi_endproc
.LFE20:
	.size	find_bitmap, .-find_bitmap
	.section	.text.change_bitmap,"ax",%progbits
	.align	1
	.syntax unified
	.thumb
	.thumb_func
	.fpu fpv4-sp-d16
	.type	change_bitmap, %function
change_bitmap:
.LFB21:
	.loc 1 1337 0
	.cfi_startproc
	@ args = 0, pretend = 0, frame = 0
	@ frame_needed = 0, uses_anonymous_args = 0
.LVL431:
	push	{r3, r4, r5, r6, r7, r8, r9, lr}
	.cfi_def_cfa_offset 32
	.cfi_offset 3, -32
	.cfi_offset 4, -28
	.cfi_offset 5, -24
	.cfi_offset 6, -20
	.cfi_offset 7, -16
	.cfi_offset 8, -12
	.cfi_offset 9, -8
	.cfi_offset 14, -4
	mov	r6, r0
	mov	r7, r2
	mov	r8, r3
	.loc 1 1343 0
	subs	r4, r1, #2
.LVL432:
	.loc 1 1344 0
	ldr	r1, [r0, #52]
	add	r1, r1, r4, lsr #12
.LVL433:
	.loc 1 1345 0
	ubfx	r5, r4, #3, #9
.LVL434:
	.loc 1 1346 0
	and	r4, r4, #7
.LVL435:
	movs	r3, #1
.LVL436:
	lsl	r4, r3, r4
	uxtb	r4, r4
.LVL437:
.L270:
	.loc 1 1348 0
	add	r9, r1, #1
.LVL438:
	mov	r0, r6
	bl	move_window
.LVL439:
	mov	r1, r0
	cbz	r0, .L268
	movs	r1, #1
	b	.L267
.LVL440:
.L273:
	.loc 1 1356 0
	movs	r4, #1
.LVL441:
.L268:
	.loc 1 1351 0
	adds	r3, r6, r5
	ldrb	r3, [r3, #60]	@ zero_extendqisi2
	tst	r3, r4
	ite	ne
	movne	r2, #1
	moveq	r2, #0
	cmp	r2, r8
	beq	.L272
	.loc 1 1352 0
	adds	r2, r6, r5
	eors	r3, r3, r4
	strb	r3, [r2, #60]
	.loc 1 1353 0
	movs	r3, #1
	strb	r3, [r6, #3]
.LVL442:
	.loc 1 1354 0
	subs	r7, r7, #1
.LVL443:
	beq	.L267
	.loc 1 1355 0
	lsls	r4, r4, r3
.LVL444:
	ands	r4, r4, #255
.LVL445:
	bne	.L268
.LVL446:
	.loc 1 1357 0
	add	r5, r5, r3
.LVL447:
	.loc 1 1356 0
	mov	r4, r3
	.loc 1 1357 0
	cmp	r5, #512
	bcc	.L273
	.loc 1 1348 0
	mov	r1, r9
	.loc 1 1358 0
	movs	r5, #0
.LVL448:
	b	.L270
.LVL449:
.L272:
	.loc 1 1351 0
	movs	r1, #2
.L267:
	.loc 1 1360 0
	mov	r0, r1
	pop	{r3, r4, r5, r6, r7, r8, r9, pc}
	.cfi_endproc
.LFE21:
	.size	change_bitmap, .-change_bitmap
	.section	.text.put_fat,"ax",%progbits
	.align	1
	.syntax unified
	.thumb
	.thumb_func
	.fpu fpv4-sp-d16
	.type	put_fat, %function
put_fat:
.LFB19:
	.loc 1 1231 0
	.cfi_startproc
	@ args = 0, pretend = 0, frame = 0
	@ frame_needed = 0, uses_anonymous_args = 0
.LVL450:
	push	{r4, r5, r6, r7, r8, r9, r10, lr}
	.cfi_def_cfa_offset 32
	.cfi_offset 4, -32
	.cfi_offset 5, -28
	.cfi_offset 6, -24
	.cfi_offset 7, -20
	.cfi_offset 8, -16
	.cfi_offset 9, -12
	.cfi_offset 10, -8
	.cfi_offset 14, -4
.LVL451:
	.loc 1 1237 0
	cmp	r1, #1
	bls	.L286
	mov	r5, r0
	mov	r4, r1
	mov	r7, r2
	.loc 1 1237 0 is_stmt 0 discriminator 1
	ldr	r3, [r0, #28]
	cmp	r3, r1
	bls	.L287
	.loc 1 1238 0 is_stmt 1
	ldrb	r3, [r0]	@ zero_extendqisi2
	subs	r3, r3, #1
	cmp	r3, #3
	bhi	.L288
	tbb	[pc, r3]
.LVL452:
.L278:
	.byte	(.L277-.L278)/2
	.byte	(.L279-.L278)/2
	.byte	(.L280-.L278)/2
	.byte	(.L280-.L278)/2
	.p2align 1
.L277:
	.loc 1 1240 0
	add	r8, r1, r1, lsr #1
.LVL453:
	.loc 1 1241 0
	ldr	r1, [r0, #40]
.LVL454:
	add	r1, r1, r8, lsr #9
	bl	move_window
.LVL455:
	.loc 1 1242 0
	mov	r6, r0
	cmp	r0, #0
	bne	.L276
	.loc 1 1243 0
	add	r10, r5, #60
	add	r9, r8, #1
.LVL456:
	ubfx	r8, r8, #0, #9
.LVL457:
	.loc 1 1244 0
	ands	r4, r4, #1
.LVL458:
	beq	.L281
	.loc 1 1244 0 is_stmt 0 discriminator 1
	ldrsb	r3, [r10, r8]
	and	r3, r3, #15
	lsls	r2, r7, #4
	and	r2, r2, #4080
	orrs	r3, r3, r2
	uxtb	r3, r3
.L282:
	.loc 1 1244 0 discriminator 4
	strb	r3, [r10, r8]
	.loc 1 1245 0 is_stmt 1 discriminator 4
	movs	r3, #1
	strb	r3, [r5, #3]
	.loc 1 1246 0 discriminator 4
	ldr	r1, [r5, #40]
	add	r1, r1, r9, lsr #9
	mov	r0, r5
.LVL459:
	bl	move_window
.LVL460:
	.loc 1 1247 0 discriminator 4
	mov	r6, r0
	cmp	r0, #0
	bne	.L276
	.loc 1 1248 0
	ubfx	r9, r9, #0, #9
.LVL461:
	.loc 1 1249 0
	cbz	r4, .L283
	.loc 1 1249 0 is_stmt 0 discriminator 1
	ubfx	r7, r7, #4, #8
.LVL462:
.L284:
	.loc 1 1249 0 discriminator 4
	strb	r7, [r10, r9]
	.loc 1 1250 0 is_stmt 1 discriminator 4
	movs	r3, #1
	strb	r3, [r5, #3]
	.loc 1 1251 0 discriminator 4
	b	.L276
.LVL463:
.L281:
	.loc 1 1244 0 discriminator 2
	uxtb	r3, r7
	b	.L282
.LVL464:
.L283:
	.loc 1 1249 0 discriminator 2
	ldrsb	r3, [r10, r9]
	bic	r3, r3, #15
	ubfx	r7, r7, #8, #4
.LVL465:
	orrs	r7, r7, r3
	uxtb	r7, r7
	b	.L284
.LVL466:
.L279:
	.loc 1 1254 0
	ldr	r1, [r0, #40]
.LVL467:
	add	r1, r1, r4, lsr #8
	bl	move_window
.LVL468:
	.loc 1 1255 0
	mov	r6, r0
	cbnz	r0, .L276
	.loc 1 1256 0
	add	r0, r5, #60
.LVL469:
	lsls	r4, r4, #1
.LVL470:
	and	r4, r4, #510
	uxth	r1, r7
	add	r0, r0, r4
	bl	st_word
.LVL471:
	.loc 1 1257 0
	movs	r3, #1
	strb	r3, [r5, #3]
	.loc 1 1258 0
	b	.L276
.LVL472:
.L280:
	.loc 1 1264 0
	ldr	r1, [r0, #40]
.LVL473:
	add	r1, r1, r4, lsr #7
	bl	move_window
.LVL474:
	.loc 1 1265 0
	mov	r6, r0
	cbnz	r0, .L276
	.loc 1 1266 0
	ldrb	r3, [r5]	@ zero_extendqisi2
	cmp	r3, #4
	beq	.L285
	.loc 1 1267 0
	bic	r7, r7, #-268435456
.LVL475:
	add	r0, r5, #60
.LVL476:
	lsls	r3, r4, #2
	and	r3, r3, #508
	add	r0, r0, r3
	bl	ld_dword
.LVL477:
	and	r0, r0, #-268435456
	orrs	r7, r7, r0
.LVL478:
.L285:
	.loc 1 1269 0
	add	r0, r5, #60
	lsls	r4, r4, #2
.LVL479:
	and	r4, r4, #508
	mov	r1, r7
	add	r0, r0, r4
	bl	st_dword
.LVL480:
	.loc 1 1270 0
	movs	r3, #1
	strb	r3, [r5, #3]
	.loc 1 1271 0
	b	.L276
.LVL481:
.L286:
	.loc 1 1234 0
	movs	r6, #2
	b	.L276
.L287:
	movs	r6, #2
.LVL482:
.L276:
	.loc 1 1275 0
	mov	r0, r6
	pop	{r4, r5, r6, r7, r8, r9, r10, pc}
.LVL483:
.L288:
	.loc 1 1234 0
	movs	r6, #2
	b	.L276
	.cfi_endproc
.LFE19:
	.size	put_fat, .-put_fat
	.section	.text.fill_last_frag,"ax",%progbits
	.align	1
	.syntax unified
	.thumb
	.thumb_func
	.fpu fpv4-sp-d16
	.type	fill_last_frag, %function
fill_last_frag:
.LFB23:
	.loc 1 1395 0
	.cfi_startproc
	@ args = 0, pretend = 0, frame = 0
	@ frame_needed = 0, uses_anonymous_args = 0
.LVL484:
	push	{r4, r5, r6, lr}
	.cfi_def_cfa_offset 16
	.cfi_offset 4, -16
	.cfi_offset 5, -12
	.cfi_offset 6, -8
	.cfi_offset 14, -4
	mov	r4, r0
	mov	r5, r1
	mov	r6, r2
	.loc 1 1399 0
	b	.L291
.LVL485:
.L295:
	.loc 1 1400 0
	mov	r2, r6
.L292:
	.loc 1 1400 0 is_stmt 0 discriminator 4
	bl	put_fat
.LVL486:
	.loc 1 1401 0 is_stmt 1 discriminator 4
	mov	r3, r0
	cbnz	r0, .L293
	.loc 1 1402 0
	ldr	r3, [r4, #28]
	subs	r3, r3, #1
	str	r3, [r4, #28]
.LVL487:
.L291:
	.loc 1 1399 0
	ldr	r3, [r4, #28]
	cbz	r3, .L293
	.loc 1 1400 0
	ldr	r0, [r4]
	subs	r2, r5, r3
	adds	r1, r2, #1
	cmp	r3, #1
	bls	.L295
	.loc 1 1400 0 is_stmt 0 discriminator 1
	adds	r2, r2, #2
	b	.L292
.L293:
	.loc 1 1405 0 is_stmt 1
	mov	r0, r3
	pop	{r4, r5, r6, pc}
	.cfi_endproc
.LFE23:
	.size	fill_last_frag, .-fill_last_frag
	.section	.text.fill_first_frag,"ax",%progbits
	.align	1
	.syntax unified
	.thumb
	.thumb_func
	.fpu fpv4-sp-d16
	.type	fill_first_frag, %function
fill_first_frag:
.LFB22:
	.loc 1 1370 0
	.cfi_startproc
	@ args = 0, pretend = 0, frame = 0
	@ frame_needed = 0, uses_anonymous_args = 0
.LVL488:
	.loc 1 1375 0
	ldrb	r3, [r0, #7]	@ zero_extendqisi2
	cmp	r3, #3
	beq	.L306
	.loc 1 1382 0
	movs	r3, #0
	.loc 1 1383 0
	mov	r0, r3
.LVL489:
	bx	lr
.LVL490:
.L306:
	.loc 1 1370 0
	push	{r4, r5, r6, lr}
	.cfi_def_cfa_offset 16
	.cfi_offset 4, -16
	.cfi_offset 5, -12
	.cfi_offset 6, -8
	.cfi_offset 14, -4
	mov	r6, r0
	.loc 1 1376 0
	ldr	r1, [r0, #8]
.LVL491:
	ldr	r4, [r0, #24]
.LVL492:
.L299:
	.loc 1 1376 0 is_stmt 0 discriminator 1
	cbz	r4, .L307
	.loc 1 1377 0 is_stmt 1
	adds	r5, r1, #1
	mov	r2, r5
	ldr	r0, [r6]
	bl	put_fat
.LVL493:
	.loc 1 1378 0
	mov	r3, r0
	cbnz	r0, .L298
.LVL494:
	.loc 1 1376 0 discriminator 2
	subs	r4, r4, #1
.LVL495:
	mov	r1, r5
	b	.L299
.LVL496:
.L307:
	.loc 1 1380 0
	movs	r3, #0
	strb	r3, [r6, #7]
.LVL497:
.L298:
	.loc 1 1383 0
	mov	r0, r3
	pop	{r4, r5, r6, pc}
	.cfi_endproc
.LFE22:
	.size	fill_first_frag, .-fill_first_frag
	.section	.text.get_fat,"ax",%progbits
	.align	1
	.syntax unified
	.thumb
	.thumb_func
	.fpu fpv4-sp-d16
	.type	get_fat, %function
get_fat:
.LFB18:
	.loc 1 1153 0
	.cfi_startproc
	@ args = 0, pretend = 0, frame = 0
	@ frame_needed = 0, uses_anonymous_args = 0
.LVL498:
	push	{r3, r4, r5, r6, r7, lr}
	.cfi_def_cfa_offset 24
	.cfi_offset 3, -24
	.cfi_offset 4, -20
	.cfi_offset 5, -16
	.cfi_offset 6, -12
	.cfi_offset 7, -8
	.cfi_offset 14, -4
	.loc 1 1156 0
	ldr	r5, [r0]
.LVL499:
	.loc 1 1159 0
	cmp	r1, #1
	bls	.L320
	.loc 1 1159 0 is_stmt 0 discriminator 1
	ldr	r3, [r5, #28]
	cmp	r3, r1
	bls	.L321
	mov	r4, r1
.LVL500:
	.loc 1 1165 0 is_stmt 1
	ldrb	r3, [r5]	@ zero_extendqisi2
	subs	r3, r3, #1
	cmp	r3, #3
	bhi	.L322
	tbb	[pc, r3]
.L311:
	.byte	(.L310-.L311)/2
	.byte	(.L312-.L311)/2
	.byte	(.L313-.L311)/2
	.byte	(.L314-.L311)/2
	.p2align 1
.L310:
.LVL501:
	.loc 1 1167 0
	add	r6, r1, r1, lsr #1
.LVL502:
	.loc 1 1168 0
	ldr	r1, [r5, #40]
.LVL503:
	add	r1, r1, r6, lsr #9
	mov	r0, r5
.LVL504:
	bl	move_window
.LVL505:
	cmp	r0, #0
	bne	.L323
	.loc 1 1169 0
	adds	r7, r6, #1
.LVL506:
	ubfx	r6, r6, #0, #9
	add	r6, r6, r5
	ldrb	r6, [r6, #60]	@ zero_extendqisi2
.LVL507:
	.loc 1 1170 0
	ldr	r1, [r5, #40]
	add	r1, r1, r7, lsr #9
	mov	r0, r5
	bl	move_window
.LVL508:
	cmp	r0, #0
	bne	.L324
	.loc 1 1171 0
	ubfx	r0, r7, #0, #9
	add	r0, r0, r5
	ldrb	r0, [r0, #60]	@ zero_extendqisi2
	orr	r0, r6, r0, lsl #8
.LVL509:
	.loc 1 1172 0
	tst	r4, #1
	beq	.L315
	.loc 1 1172 0 is_stmt 0 discriminator 1
	lsrs	r0, r0, #4
.LVL510:
	b	.L308
.LVL511:
.L315:
	.loc 1 1172 0 discriminator 2
	ubfx	r0, r0, #0, #12
.LVL512:
	b	.L308
.LVL513:
.L312:
	.loc 1 1176 0 is_stmt 1
	ldr	r1, [r5, #40]
.LVL514:
	add	r1, r1, r4, lsr #8
	mov	r0, r5
.LVL515:
	bl	move_window
.LVL516:
	cmp	r0, #0
	bne	.L325
	.loc 1 1177 0
	add	r0, r5, #60
	lsls	r4, r4, #1
.LVL517:
	and	r4, r4, #510
	add	r0, r0, r4
	bl	ld_word
.LVL518:
	.loc 1 1178 0
	b	.L308
.LVL519:
.L313:
	.loc 1 1181 0
	ldr	r1, [r5, #40]
.LVL520:
	add	r1, r1, r4, lsr #7
	mov	r0, r5
.LVL521:
	bl	move_window
.LVL522:
	cmp	r0, #0
	bne	.L326
	.loc 1 1182 0
	add	r0, r5, #60
	lsls	r4, r4, #2
.LVL523:
	and	r4, r4, #508
	add	r0, r0, r4
	bl	ld_dword
.LVL524:
	bic	r0, r0, #-268435456
.LVL525:
	.loc 1 1183 0
	b	.L308
.LVL526:
.L314:
	.loc 1 1186 0
	ldrd	r2, [r0, #16]
	orrs	r1, r2, r3
.LVL527:
	beq	.L316
	.loc 1 1186 0 is_stmt 0 discriminator 1
	ldr	r1, [r0, #8]
	cbnz	r1, .L317
.L316:
	.loc 1 1186 0 discriminator 3
	ldrb	r1, [r0, #7]	@ zero_extendqisi2
	cmp	r1, #0
	bne	.L327
.L317:
.LBB4:
	.loc 1 1187 0 is_stmt 1
	ldr	r1, [r0, #8]
	subs	r1, r4, r1
.LVL528:
	.loc 1 1188 0
	adds	r6, r2, #-1
	adc	r7, r3, #-1
	lsrs	r2, r6, #9
	orr	r2, r2, r7, lsl #23
	ldrh	r3, [r5, #10]
	udiv	r2, r2, r3
.LVL529:
	.loc 1 1190 0
	ldrb	r3, [r0, #7]	@ zero_extendqisi2
	cmp	r3, #2
	beq	.L333
.L318:
	.loc 1 1194 0
	cmp	r3, #3
	beq	.L334
.LVL530:
.L319:
	.loc 1 1198 0
	cmp	r3, #2
	beq	.L329
	.loc 1 1199 0
	ldr	r3, [r0, #28]
	cbnz	r3, .L330
	.loc 1 1202 0
	ldr	r1, [r5, #40]
.LVL531:
	add	r1, r1, r4, lsr #7
	mov	r0, r5
.LVL532:
	bl	move_window
.LVL533:
	cbnz	r0, .L331
	.loc 1 1203 0
	add	r0, r5, #60
	lsls	r3, r4, #2
	and	r3, r3, #508
	add	r0, r0, r3
	bl	ld_dword
.LVL534:
	bic	r0, r0, #-2147483648
.LVL535:
	b	.L308
.LVL536:
.L333:
	.loc 1 1190 0 discriminator 1
	cmp	r1, r2
	bhi	.L318
	.loc 1 1191 0
	beq	.L328
	.loc 1 1191 0 is_stmt 0 discriminator 1
	adds	r0, r4, #1
.LVL537:
	b	.L308
.LVL538:
.L334:
	.loc 1 1194 0 is_stmt 1 discriminator 1
	ldr	r2, [r0, #24]
.LVL539:
	cmp	r2, r1
	bls	.L319
	.loc 1 1195 0
	adds	r0, r4, #1
.LVL540:
	.loc 1 1196 0
	b	.L308
.LVL541:
.L320:
.LBE4:
	.loc 1 1160 0
	movs	r0, #1
.LVL542:
.L308:
	.loc 1 1216 0
	pop	{r3, r4, r5, r6, r7, pc}
.LVL543:
.L321:
	.loc 1 1160 0
	movs	r0, #1
.LVL544:
	b	.L308
.LVL545:
.L322:
	.loc 1 1211 0
	movs	r0, #1
.LVL546:
	b	.L308
.LVL547:
.L323:
	.loc 1 1163 0
	mov	r0, #-1
	b	.L308
.LVL548:
.L324:
	mov	r0, #-1
	b	.L308
.LVL549:
.L325:
	mov	r0, #-1
	b	.L308
.L326:
	mov	r0, #-1
	b	.L308
.LVL550:
.L327:
	.loc 1 1211 0
	movs	r0, #1
.LVL551:
	b	.L308
.LVL552:
.L328:
.LBB5:
	.loc 1 1191 0
	mvn	r0, #-2147483648
.LVL553:
	b	.L308
.LVL554:
.L329:
.LBE5:
	.loc 1 1211 0
	movs	r0, #1
.LVL555:
	b	.L308
.LVL556:
.L330:
.LBB6:
	.loc 1 1200 0
	mvn	r0, #-2147483648
.LVL557:
	b	.L308
.LVL558:
.L331:
.LBE6:
	.loc 1 1163 0
	mov	r0, #-1
	.loc 1 1215 0
	b	.L308
	.cfi_endproc
.LFE18:
	.size	get_fat, .-get_fat
	.section	.text.dir_sdi,"ax",%progbits
	.align	1
	.syntax unified
	.thumb
	.thumb_func
	.fpu fpv4-sp-d16
	.type	dir_sdi, %function
dir_sdi:
.LFB27:
	.loc 1 1687 0
	.cfi_startproc
	@ args = 0, pretend = 0, frame = 0
	@ frame_needed = 0, uses_anonymous_args = 0
.LVL559:
	push	{r4, r5, r6, r7, r8, lr}
	.cfi_def_cfa_offset 24
	.cfi_offset 4, -24
	.cfi_offset 5, -20
	.cfi_offset 6, -16
	.cfi_offset 7, -12
	.cfi_offset 8, -8
	.cfi_offset 14, -4
	mov	r6, r0
	mov	r5, r1
	.loc 1 1689 0
	ldr	r7, [r0]
.LVL560:
	.loc 1 1692 0
	ldrb	r3, [r7]	@ zero_extendqisi2
	cmp	r3, #4
	beq	.L352
	mov	r3, #2097152
.L336:
	.loc 1 1692 0 is_stmt 0 discriminator 4
	cmp	r3, r5
	bls	.L344
	.loc 1 1692 0 discriminator 5
	tst	r5, #31
	bne	.L345
	.loc 1 1695 0 is_stmt 1
	str	r5, [r6, #48]
	.loc 1 1696 0
	ldr	r4, [r6, #8]
.LVL561:
	.loc 1 1697 0
	cbnz	r4, .L338
	.loc 1 1697 0 is_stmt 0 discriminator 1
	ldrb	r3, [r7]	@ zero_extendqisi2
	cmp	r3, #2
	bls	.L338
	.loc 1 1698 0 is_stmt 1
	ldr	r4, [r7, #44]
.LVL562:
	.loc 1 1699 0
	movs	r3, #0
	strb	r3, [r6, #7]
.L338:
	.loc 1 1702 0
	cbnz	r4, .L339
	.loc 1 1703 0
	ldrh	r3, [r7, #8]
	cmp	r3, r5, lsr #5
	bls	.L346
	.loc 1 1704 0
	ldr	r3, [r7, #44]
	str	r3, [r6, #56]
.LVL563:
.L340:
	.loc 1 1716 0
	str	r4, [r6, #52]
	.loc 1 1717 0
	ldr	r3, [r6, #56]
	cbz	r3, .L350
	.loc 1 1718 0
	add	r3, r3, r5, lsr #9
	str	r3, [r6, #56]
	.loc 1 1719 0
	adds	r7, r7, #60
.LVL564:
	ubfx	r5, r5, #0, #9
.LVL565:
	add	r5, r5, r7
	str	r5, [r6, #60]
	.loc 1 1721 0
	movs	r0, #0
	b	.L337
.LVL566:
.L352:
	.loc 1 1692 0
	mov	r3, #268435456
	b	.L336
.LVL567:
.L339:
	.loc 1 1707 0
	ldrh	r8, [r7, #10]
	lsl	r8, r8, #9
.LVL568:
.L341:
	.loc 1 1708 0
	cmp	r5, r8
	bcc	.L353
	.loc 1 1709 0
	mov	r1, r4
	mov	r0, r6
	bl	get_fat
.LVL569:
	mov	r4, r0
.LVL570:
	.loc 1 1710 0
	cmp	r0, #-1
	beq	.L347
	.loc 1 1711 0
	cmp	r0, #1
	bls	.L348
	.loc 1 1711 0 is_stmt 0 discriminator 2
	ldr	r3, [r7, #28]
	cmp	r3, r0
	bls	.L349
	.loc 1 1712 0 is_stmt 1
	sub	r5, r5, r8
.LVL571:
	b	.L341
.LVL572:
.L353:
	.loc 1 1714 0
	mov	r1, r4
	mov	r0, r7
	bl	clst2sect
.LVL573:
	str	r0, [r6, #56]
	b	.L340
.LVL574:
.L344:
	.loc 1 1693 0
	movs	r0, #2
.LVL575:
.L337:
	.loc 1 1722 0
	pop	{r4, r5, r6, r7, r8, pc}
.LVL576:
.L345:
	.loc 1 1693 0
	movs	r0, #2
.LVL577:
	b	.L337
.LVL578:
.L346:
	.loc 1 1703 0
	movs	r0, #2
.LVL579:
	b	.L337
.LVL580:
.L347:
	.loc 1 1710 0
	movs	r0, #1
.LVL581:
	b	.L337
.LVL582:
.L348:
	.loc 1 1711 0
	movs	r0, #2
.LVL583:
	b	.L337
.LVL584:
.L349:
	movs	r0, #2
.LVL585:
	b	.L337
.LVL586:
.L350:
	.loc 1 1717 0
	movs	r0, #2
	b	.L337
	.cfi_endproc
.LFE27:
	.size	dir_sdi, .-dir_sdi
	.section	.text.create_chain,"ax",%progbits
	.align	1
	.syntax unified
	.thumb
	.thumb_func
	.fpu fpv4-sp-d16
	.type	create_chain, %function
create_chain:
.LFB25:
	.loc 1 1515 0
	.cfi_startproc
	@ args = 0, pretend = 0, frame = 0
	@ frame_needed = 0, uses_anonymous_args = 0
.LVL587:
	push	{r3, r4, r5, r6, r7, r8, r9, lr}
	.cfi_def_cfa_offset 32
	.cfi_offset 3, -32
	.cfi_offset 4, -28
	.cfi_offset 5, -24
	.cfi_offset 6, -20
	.cfi_offset 7, -16
	.cfi_offset 8, -12
	.cfi_offset 9, -8
	.cfi_offset 14, -4
	mov	r8, r0
	.loc 1 1518 0
	ldr	r7, [r0]
.LVL588:
	.loc 1 1521 0
	mov	r9, r1
	cbnz	r1, .L355
	.loc 1 1522 0
	ldr	r6, [r7, #20]
.LVL589:
	.loc 1 1523 0
	cbz	r6, .L373
	.loc 1 1523 0 is_stmt 0 discriminator 2
	ldr	r3, [r7, #28]
	cmp	r3, r6
	bhi	.L356
	.loc 1 1523 0
	movs	r6, #1
.LVL590:
	b	.L356
.LVL591:
.L355:
	.loc 1 1526 0 is_stmt 1
	bl	get_fat
.LVL592:
	mov	r5, r0
.LVL593:
	.loc 1 1527 0
	cmp	r0, #1
	bls	.L375
	.loc 1 1528 0
	cmp	r0, #-1
	beq	.L354
	.loc 1 1529 0
	ldr	r3, [r7, #28]
	cmp	r3, r0
	bhi	.L354
	.loc 1 1530 0
	mov	r6, r9
	b	.L356
.LVL594:
.L373:
	.loc 1 1523 0
	movs	r6, #1
.LVL595:
.L356:
	.loc 1 1532 0
	ldr	r5, [r7, #24]
	cmp	r5, #0
	beq	.L354
	.loc 1 1535 0
	ldrb	r3, [r7]	@ zero_extendqisi2
	cmp	r3, #4
	beq	.L387
.LVL596:
	.loc 1 1562 0
	cmp	r6, r9
	beq	.L388
.LVL597:
.L365:
	.loc 1 1569 0
	mov	r4, r6
	b	.L370
.LVL598:
.L387:
	.loc 1 1536 0
	movs	r2, #1
	mov	r1, r6
	mov	r0, r7
	bl	find_bitmap
.LVL599:
	mov	r5, r0
.LVL600:
	.loc 1 1537 0
	subs	r3, r0, #1
	cmn	r3, #3
	bhi	.L354
	.loc 1 1538 0
	movs	r3, #1
	mov	r2, r3
	mov	r1, r0
	mov	r0, r7
.LVL601:
	bl	change_bitmap
.LVL602:
	mov	r3, r0
.LVL603:
	.loc 1 1539 0
	cmp	r0, #2
	beq	.L376
	.loc 1 1540 0
	cmp	r0, #1
	beq	.L377
	.loc 1 1541 0
	cmp	r9, #0
	bne	.L359
	.loc 1 1542 0
	movs	r2, #2
	strb	r2, [r8, #7]
.L360:
	.loc 1 1549 0
	ldrb	r2, [r8, #7]	@ zero_extendqisi2
	cmp	r2, #2
	beq	.L378
	.loc 1 1550 0
	add	r2, r9, #1
	cmp	r2, r5
	beq	.L389
	.loc 1 1553 0
	ldr	r3, [r8, #28]
	cbnz	r3, .L364
	.loc 1 1553 0 is_stmt 0 discriminator 1
	movs	r3, #1
	str	r3, [r8, #28]
.L364:
	.loc 1 1554 0 is_stmt 1
	mov	r2, r5
	mov	r1, r9
	mov	r0, r8
.LVL604:
	bl	fill_last_frag
.LVL605:
	.loc 1 1555 0
	mov	r3, r0
	cmp	r0, #0
	bne	.L380
	.loc 1 1555 0 is_stmt 0 discriminator 1
	movs	r2, #1
	str	r2, [r8, #28]
	.loc 1 1536 0 is_stmt 1 discriminator 1
	mov	r4, r5
	b	.L361
.L359:
	.loc 1 1544 0
	ldrb	r2, [r8, #7]	@ zero_extendqisi2
	cmp	r2, #2
	bne	.L360
	.loc 1 1544 0 is_stmt 0 discriminator 1
	adds	r2, r6, #1
	cmp	r2, r5
	beq	.L360
	.loc 1 1545 0 is_stmt 1
	ldr	r2, [r8, #8]
	subs	r2, r6, r2
	str	r2, [r8, #24]
	.loc 1 1546 0
	movs	r2, #3
	strb	r2, [r8, #7]
	b	.L360
.L389:
	.loc 1 1551 0
	ldr	r2, [r8, #28]
	cbz	r2, .L379
	.loc 1 1551 0 is_stmt 0 discriminator 1
	adds	r2, r2, #1
.L363:
	.loc 1 1551 0 discriminator 4
	str	r2, [r8, #28]
	.loc 1 1536 0 is_stmt 1 discriminator 4
	mov	r4, r5
	b	.L361
.L379:
	.loc 1 1551 0
	movs	r2, #2
	b	.L363
.LVL606:
.L388:
	.loc 1 1563 0
	adds	r4, r6, #1
.LVL607:
	.loc 1 1564 0
	ldr	r3, [r7, #28]
	cmp	r3, r4
	bhi	.L366
	movs	r4, #2
.LVL608:
.L366:
	.loc 1 1565 0
	mov	r1, r4
	mov	r0, r8
	bl	get_fat
.LVL609:
	mov	r5, r0
.LVL610:
	.loc 1 1566 0
	cmp	r0, #1
	beq	.L354
	.loc 1 1566 0 is_stmt 0 discriminator 2
	cmp	r0, #-1
	beq	.L354
	.loc 1 1567 0 is_stmt 1
	cbz	r0, .L367
	.loc 1 1568 0
	ldr	r3, [r7, #20]
.LVL611:
	.loc 1 1569 0
	cmp	r3, #1
	bls	.L365
	.loc 1 1569 0 is_stmt 0 discriminator 1
	ldr	r2, [r7, #28]
	cmp	r2, r3
	bls	.L365
	.loc 1 1569 0
	mov	r6, r3
.LVL612:
	b	.L365
.LVL613:
.L367:
	.loc 1 1573 0 is_stmt 1
	cmp	r4, #0
	beq	.L365
.LVL614:
.L368:
	.loc 1 1587 0
	mov	r2, #-1
	mov	r1, r4
	mov	r0, r7
.LVL615:
	bl	put_fat
.LVL616:
	.loc 1 1588 0
	mov	r3, r0
	cbnz	r0, .L361
	.loc 1 1588 0 is_stmt 0 discriminator 1
	cmp	r9, #0
	bne	.L390
.LVL617:
.L361:
	.loc 1 1593 0 is_stmt 1
	cbnz	r3, .L371
	.loc 1 1594 0
	str	r4, [r7, #20]
	.loc 1 1595 0
	ldr	r2, [r7, #24]
	ldr	r3, [r7, #28]
.LVL618:
	subs	r3, r3, #2
	cmp	r2, r3
	bhi	.L372
	.loc 1 1595 0 is_stmt 0 discriminator 1
	subs	r2, r2, #1
	str	r2, [r7, #24]
.L372:
	.loc 1 1596 0 is_stmt 1
	ldrb	r3, [r7, #4]	@ zero_extendqisi2
	orr	r3, r3, #1
	strb	r3, [r7, #4]
	mov	r5, r4
	b	.L354
.LVL619:
.L369:
	.loc 1 1581 0
	mov	r1, r4
	mov	r0, r8
	bl	get_fat
.LVL620:
	.loc 1 1582 0
	mov	r5, r0
	cmp	r0, #0
	beq	.L368
	.loc 1 1583 0
	cmp	r0, #1
	beq	.L354
	.loc 1 1583 0 is_stmt 0 discriminator 2
	cmp	r0, #-1
	beq	.L354
	.loc 1 1584 0 is_stmt 1
	cmp	r4, r6
	beq	.L391
.LVL621:
.L370:
	.loc 1 1576 0
	adds	r4, r4, #1
.LVL622:
	.loc 1 1577 0
	ldr	r3, [r7, #28]
	cmp	r3, r4
	bhi	.L369
.LVL623:
	.loc 1 1579 0
	cmp	r6, #1
	bls	.L383
	.loc 1 1578 0
	movs	r4, #2
	b	.L369
.LVL624:
.L390:
	.loc 1 1589 0
	mov	r2, r4
	mov	r1, r9
	mov	r0, r7
.LVL625:
	bl	put_fat
.LVL626:
	mov	r3, r0
.LVL627:
	b	.L361
.LVL628:
.L378:
	.loc 1 1536 0
	mov	r4, r5
	b	.L361
.L380:
	mov	r4, r5
	b	.L361
.LVL629:
.L371:
	.loc 1 1598 0
	cmp	r3, #1
	beq	.L392
	movs	r5, #1
	b	.L354
.L392:
	mov	r5, #-1
	b	.L354
.LVL630:
.L375:
	.loc 1 1527 0
	movs	r5, #1
.LVL631:
.L354:
	.loc 1 1602 0
	mov	r0, r5
	pop	{r3, r4, r5, r6, r7, r8, r9, pc}
.LVL632:
.L376:
	.loc 1 1539 0
	movs	r5, #1
.LVL633:
	b	.L354
.LVL634:
.L377:
	.loc 1 1540 0
	mov	r5, #-1
.LVL635:
	b	.L354
.LVL636:
.L383:
	.loc 1 1579 0
	movs	r5, #0
	b	.L354
.LVL637:
.L391:
	.loc 1 1584 0
	movs	r5, #0
	b	.L354
	.cfi_endproc
.LFE25:
	.size	create_chain, .-create_chain
	.section	.text.remove_chain,"ax",%progbits
	.align	1
	.syntax unified
	.thumb
	.thumb_func
	.fpu fpv4-sp-d16
	.type	remove_chain, %function
remove_chain:
.LFB24:
	.loc 1 1421 0
	.cfi_startproc
	@ args = 0, pretend = 0, frame = 0
	@ frame_needed = 0, uses_anonymous_args = 0
.LVL638:
	push	{r3, r4, r5, r6, r7, r8, r9, lr}
	.cfi_def_cfa_offset 32
	.cfi_offset 3, -32
	.cfi_offset 4, -28
	.cfi_offset 5, -24
	.cfi_offset 6, -20
	.cfi_offset 7, -16
	.cfi_offset 8, -12
	.cfi_offset 9, -8
	.cfi_offset 14, -4
.LVL639:
	.loc 1 1424 0
	ldr	r4, [r0]
.LVL640:
	.loc 1 1432 0
	cmp	r1, #1
	bls	.L407
	mov	r7, r0
	mov	r6, r1
	mov	r9, r2
	.loc 1 1432 0 is_stmt 0 discriminator 2
	ldr	r3, [r4, #28]
	cmp	r3, r1
	bls	.L408
	.loc 1 1435 0 is_stmt 1
	cbz	r2, .L395
	.loc 1 1435 0 is_stmt 0 discriminator 1
	ldrb	r3, [r4]	@ zero_extendqisi2
	cmp	r3, #4
	bne	.L396
	.loc 1 1435 0 discriminator 2
	ldrb	r3, [r0, #7]	@ zero_extendqisi2
	cmp	r3, #2
	beq	.L395
.L396:
	.loc 1 1436 0 is_stmt 1
	mov	r2, #-1
.LVL641:
	mov	r1, r9
.LVL642:
	mov	r0, r4
.LVL643:
	bl	put_fat
.LVL644:
	.loc 1 1437 0
	mov	r3, r0
	cmp	r0, #0
	bne	.L394
.LVL645:
.L395:
	.loc 1 1421 0
	mov	r8, r6
	b	.L401
.LVL646:
.L421:
	.loc 1 1447 0
	movs	r2, #0
	mov	r1, r6
	mov	r0, r4
.LVL647:
	bl	put_fat
.LVL648:
	.loc 1 1448 0
	mov	r3, r0
	cbz	r0, .L398
	b	.L394
.LVL649:
.L399:
	.loc 1 1455 0
	adds	r3, r6, #1
	cmp	r3, r5
	beq	.L400
	.loc 1 1459 0
	ldrb	r3, [r4]	@ zero_extendqisi2
	cmp	r3, #4
	beq	.L420
	.loc 1 1469 0
	mov	r8, r5
.LVL650:
.L400:
	.loc 1 1473 0
	ldr	r3, [r4, #28]
	.loc 1 1472 0
	mov	r6, r5
	.loc 1 1473 0
	cmp	r3, r5
	bls	.L397
.LVL651:
.L401:
	.loc 1 1442 0
	mov	r1, r6
	mov	r0, r7
	bl	get_fat
.LVL652:
	.loc 1 1443 0
	mov	r5, r0
	cbz	r0, .L397
	.loc 1 1444 0
	cmp	r0, #1
	beq	.L409
	.loc 1 1445 0
	cmp	r0, #-1
	beq	.L410
	.loc 1 1446 0
	ldrb	r3, [r4]	@ zero_extendqisi2
	cmp	r3, #4
	bne	.L421
.LVL653:
.L398:
	.loc 1 1450 0
	ldr	r2, [r4, #24]
	ldr	r3, [r4, #28]
	subs	r3, r3, #2
	cmp	r2, r3
	bcs	.L399
	.loc 1 1451 0
	adds	r2, r2, #1
	str	r2, [r4, #24]
	.loc 1 1452 0
	ldrb	r3, [r4, #4]	@ zero_extendqisi2
	orr	r3, r3, #1
	strb	r3, [r4, #4]
	b	.L399
.L420:
	.loc 1 1460 0
	sub	r2, r6, r8
	movs	r3, #0
	adds	r2, r2, #1
	mov	r1, r8
	mov	r0, r4
	bl	change_bitmap
.LVL654:
	.loc 1 1461 0
	mov	r3, r0
	cbnz	r0, .L394
	.loc 1 1469 0
	mov	r8, r5
.LVL655:
	b	.L400
.LVL656:
.L397:
	.loc 1 1477 0
	ldrb	r3, [r4]	@ zero_extendqisi2
	cmp	r3, #4
	beq	.L422
	.loc 1 1501 0
	movs	r3, #0
	b	.L394
.L422:
	.loc 1 1478 0
	cmp	r9, #0
	beq	.L423
	.loc 1 1481 0
	ldrb	r3, [r7, #7]	@ zero_extendqisi2
	cbnz	r3, .L403
	.loc 1 1482 0
	ldr	r4, [r7, #8]
.LVL657:
.L404:
	.loc 1 1483 0
	cmp	r4, r9
	beq	.L405
	.loc 1 1484 0
	mov	r1, r4
	mov	r0, r7
	bl	get_fat
.LVL658:
	.loc 1 1485 0
	cmp	r0, #1
	bls	.L413
	.loc 1 1486 0
	cmp	r0, #-1
	beq	.L414
	.loc 1 1487 0
	adds	r3, r4, #1
	cmp	r3, r0
	bne	.L405
	.loc 1 1488 0
	mov	r4, r3
.LVL659:
	b	.L404
.LVL660:
.L423:
	.loc 1 1479 0
	movs	r3, #0
	strb	r3, [r7, #7]
	b	.L394
.LVL661:
.L405:
	.loc 1 1490 0
	cmp	r4, r9
	beq	.L424
	.loc 1 1501 0
	movs	r3, #0
	b	.L394
.L424:
	.loc 1 1491 0
	movs	r3, #2
	strb	r3, [r7, #7]
	.loc 1 1501 0
	movs	r3, #0
	b	.L394
.LVL662:
.L403:
	.loc 1 1494 0
	cmp	r3, #3
	beq	.L425
	.loc 1 1501 0
	movs	r3, #0
	b	.L394
.L425:
	.loc 1 1494 0 discriminator 1
	ldr	r3, [r7, #8]
	cmp	r3, r9
	bhi	.L417
	.loc 1 1494 0 is_stmt 0 discriminator 2
	ldr	r2, [r7, #24]
	add	r3, r3, r2
	cmp	r3, r9
	bcc	.L418
	.loc 1 1495 0 is_stmt 1
	movs	r3, #2
	strb	r3, [r7, #7]
	.loc 1 1501 0
	movs	r3, #0
	b	.L394
.LVL663:
.L407:
	.loc 1 1432 0
	movs	r3, #2
	b	.L394
.L408:
	movs	r3, #2
.LVL664:
.L394:
	.loc 1 1502 0
	mov	r0, r3
	pop	{r3, r4, r5, r6, r7, r8, r9, pc}
.LVL665:
.L409:
	.loc 1 1444 0
	movs	r3, #2
	b	.L394
.L410:
	.loc 1 1445 0
	movs	r3, #1
	b	.L394
.LVL666:
.L413:
	.loc 1 1485 0
	movs	r3, #2
	b	.L394
.L414:
	.loc 1 1486 0
	movs	r3, #1
	b	.L394
.LVL667:
.L417:
	.loc 1 1501 0
	movs	r3, #0
	b	.L394
.L418:
	movs	r3, #0
	b	.L394
	.cfi_endproc
.LFE24:
	.size	remove_chain, .-remove_chain
	.section	.text.dir_clear,"ax",%progbits
	.align	1
	.syntax unified
	.thumb
	.thumb_func
	.fpu fpv4-sp-d16
	.type	dir_clear, %function
dir_clear:
.LFB26:
	.loc 1 1648 0
	.cfi_startproc
	@ args = 0, pretend = 0, frame = 0
	@ frame_needed = 0, uses_anonymous_args = 0
.LVL668:
	push	{r3, r4, r5, r6, r7, lr}
	.cfi_def_cfa_offset 24
	.cfi_offset 3, -24
	.cfi_offset 4, -20
	.cfi_offset 5, -16
	.cfi_offset 6, -12
	.cfi_offset 7, -8
	.cfi_offset 14, -4
	mov	r5, r0
	mov	r4, r1
	.loc 1 1654 0
	bl	sync_window
.LVL669:
	cbz	r0, .L433
	movs	r0, #1
.LVL670:
.L427:
	.loc 1 1673 0
	pop	{r3, r4, r5, r6, r7, pc}
.LVL671:
.L433:
	.loc 1 1655 0
	mov	r1, r4
	mov	r0, r5
	bl	clst2sect
.LVL672:
	mov	r7, r0
.LVL673:
	.loc 1 1656 0
	str	r0, [r5, #56]
	.loc 1 1657 0
	add	r6, r5, #60
	mov	r2, #512
	movs	r1, #0
	mov	r0, r6
.LVL674:
	bl	mem_set
.LVL675:
	.loc 1 1670 0
	movs	r4, #0
.LVL676:
	b	.L428
.LVL677:
.L430:
	.loc 1 1670 0 is_stmt 0 discriminator 4
	adds	r4, r4, #1
.LVL678:
.L428:
	.loc 1 1670 0 discriminator 1
	ldrh	r3, [r5, #10]
	cmp	r3, r4
	bls	.L429
	.loc 1 1670 0 discriminator 3
	movs	r3, #1
	adds	r2, r4, r7
	mov	r1, r6
	ldrb	r0, [r5, #1]	@ zero_extendqisi2
	bl	disk_write
.LVL679:
	cmp	r0, #0
	beq	.L430
.L429:
	.loc 1 1672 0 is_stmt 1
	ldrh	r0, [r5, #10]
	subs	r0, r0, r4
	it	ne
	movne	r0, #1
	b	.L427
	.cfi_endproc
.LFE26:
	.size	dir_clear, .-dir_clear
	.section	.text.dir_next,"ax",%progbits
	.align	1
	.syntax unified
	.thumb
	.thumb_func
	.fpu fpv4-sp-d16
	.type	dir_next, %function
dir_next:
.LFB28:
	.loc 1 1735 0
	.cfi_startproc
	@ args = 0, pretend = 0, frame = 0
	@ frame_needed = 0, uses_anonymous_args = 0
.LVL680:
	push	{r3, r4, r5, r6, r7, r8, r9, lr}
	.cfi_def_cfa_offset 32
	.cfi_offset 3, -32
	.cfi_offset 4, -28
	.cfi_offset 5, -24
	.cfi_offset 6, -20
	.cfi_offset 7, -16
	.cfi_offset 8, -12
	.cfi_offset 9, -8
	.cfi_offset 14, -4
	.loc 1 1737 0
	ldr	r6, [r0]
.LVL681:
	.loc 1 1740 0
	ldr	r5, [r0, #48]
	adds	r5, r5, #32
.LVL682:
	.loc 1 1741 0
	ldrb	r3, [r6]	@ zero_extendqisi2
	cmp	r3, #4
	beq	.L451
	mov	r3, #2097152
.L435:
	.loc 1 1741 0 is_stmt 0 discriminator 4
	cmp	r3, r5
	bhi	.L436
	.loc 1 1741 0 discriminator 5
	movs	r3, #0
	str	r3, [r0, #56]
.L436:
	.loc 1 1742 0 is_stmt 1
	ldr	r3, [r0, #56]
	cmp	r3, #0
	beq	.L443
	mov	r8, r1
	mov	r4, r0
	.loc 1 1744 0
	ubfx	r7, r5, #0, #9
	cbnz	r7, .L438
	.loc 1 1745 0
	adds	r3, r3, #1
	str	r3, [r0, #56]
	.loc 1 1747 0
	ldr	r1, [r0, #52]
.LVL683:
	cbnz	r1, .L439
	.loc 1 1748 0
	ldrh	r3, [r6, #8]
	cmp	r3, r5, lsr #5
	bls	.L452
.LVL684:
.L438:
	.loc 1 1778 0
	str	r5, [r4, #48]
	.loc 1 1779 0
	add	r3, r6, #60
	add	r3, r3, r7
	str	r3, [r4, #60]
	.loc 1 1781 0
	movs	r0, #0
.LVL685:
.L437:
	.loc 1 1782 0
	pop	{r3, r4, r5, r6, r7, r8, r9, pc}
.LVL686:
.L451:
	.loc 1 1741 0
	mov	r3, #268435456
	b	.L435
.LVL687:
.L452:
	.loc 1 1749 0
	movs	r3, #0
	str	r3, [r0, #56]
	movs	r0, #4
.LVL688:
	b	.L437
.LVL689:
.L439:
	.loc 1 1753 0
	ldrh	r3, [r6, #10]
	subs	r3, r3, #1
	ands	r3, r3, r5, lsr #9
	bne	.L438
	.loc 1 1754 0
	bl	get_fat
.LVL690:
	mov	r9, r0
.LVL691:
	.loc 1 1755 0
	cmp	r0, #1
	bls	.L444
	.loc 1 1756 0
	cmp	r0, #-1
	beq	.L445
	.loc 1 1757 0
	ldr	r3, [r6, #28]
	cmp	r3, r0
	bhi	.L440
	.loc 1 1759 0
	cmp	r8, #0
	beq	.L453
	.loc 1 1762 0
	ldr	r1, [r4, #52]
	mov	r0, r4
.LVL692:
	bl	create_chain
.LVL693:
	.loc 1 1763 0
	mov	r9, r0
	cbz	r0, .L446
	.loc 1 1764 0
	cmp	r0, #1
	beq	.L447
	.loc 1 1765 0
	cmp	r0, #-1
	beq	.L448
	.loc 1 1766 0
	mov	r1, r0
	mov	r0, r6
.LVL694:
	bl	dir_clear
.LVL695:
	cbnz	r0, .L449
	.loc 1 1767 0 discriminator 1
	ldrb	r3, [r4, #7]	@ zero_extendqisi2
	orr	r3, r3, #4
	strb	r3, [r4, #7]
.L440:
	.loc 1 1773 0
	str	r9, [r4, #52]
	.loc 1 1774 0
	mov	r1, r9
	mov	r0, r6
	bl	clst2sect
.LVL696:
	str	r0, [r4, #56]
	b	.L438
.LVL697:
.L453:
	.loc 1 1760 0
	movs	r3, #0
	str	r3, [r4, #56]
	movs	r0, #4
.LVL698:
	b	.L437
.LVL699:
.L443:
	.loc 1 1742 0
	movs	r0, #4
.LVL700:
	b	.L437
.LVL701:
.L444:
	.loc 1 1755 0
	movs	r0, #2
.LVL702:
	b	.L437
.LVL703:
.L445:
	.loc 1 1756 0
	movs	r0, #1
.LVL704:
	b	.L437
.LVL705:
.L446:
	.loc 1 1763 0
	movs	r0, #7
.LVL706:
	b	.L437
.LVL707:
.L447:
	.loc 1 1764 0
	movs	r0, #2
.LVL708:
	b	.L437
.LVL709:
.L448:
	.loc 1 1765 0
	movs	r0, #1
.LVL710:
	b	.L437
.L449:
	.loc 1 1766 0
	movs	r0, #1
	b	.L437
	.cfi_endproc
.LFE28:
	.size	dir_next, .-dir_next
	.section	.text.load_xdir,"ax",%progbits
	.align	1
	.syntax unified
	.thumb
	.thumb_func
	.fpu fpv4-sp-d16
	.type	load_xdir, %function
load_xdir:
.LFB40:
	.loc 1 2161 0
	.cfi_startproc
	@ args = 0, pretend = 0, frame = 0
	@ frame_needed = 0, uses_anonymous_args = 0
.LVL711:
	push	{r4, r5, r6, r7, r8, lr}
	.cfi_def_cfa_offset 24
	.cfi_offset 4, -24
	.cfi_offset 5, -20
	.cfi_offset 6, -16
	.cfi_offset 7, -12
	.cfi_offset 8, -8
	.cfi_offset 14, -4
	mov	r4, r0
	.loc 1 2164 0
	ldr	r0, [r0]
.LVL712:
	ldr	r6, [r0, #16]
.LVL713:
	.loc 1 2168 0
	ldr	r1, [r4, #56]
	bl	move_window
.LVL714:
	.loc 1 2169 0
	mov	r5, r0
	cbnz	r0, .L455
	.loc 1 2170 0
	ldr	r1, [r4, #60]
	ldrb	r3, [r1]	@ zero_extendqisi2
	cmp	r3, #133
	beq	.L466
	movs	r5, #2
.LVL715:
.L455:
	.loc 1 2202 0
	mov	r0, r5
	pop	{r4, r5, r6, r7, r8, pc}
.LVL716:
.L466:
	.loc 1 2171 0
	movs	r2, #32
	mov	r0, r6
.LVL717:
	bl	mem_cpy
.LVL718:
	.loc 1 2172 0
	ldrb	r7, [r6, #1]	@ zero_extendqisi2
	adds	r7, r7, #1
	lsls	r7, r7, #5
.LVL719:
	.loc 1 2173 0
	sub	r3, r7, #96
	cmp	r3, #512
	bhi	.L459
	.loc 1 2176 0
	movs	r1, #0
	mov	r0, r4
	bl	dir_next
.LVL720:
	mov	r5, r0
.LVL721:
	.loc 1 2177 0
	cmp	r0, #4
	beq	.L460
	.loc 1 2178 0
	cmp	r0, #0
	bne	.L455
	.loc 1 2179 0
	ldr	r1, [r4, #56]
	ldr	r0, [r4]
.LVL722:
	bl	move_window
.LVL723:
	.loc 1 2180 0
	mov	r5, r0
	cmp	r0, #0
	bne	.L455
	.loc 1 2181 0
	ldr	r1, [r4, #60]
	ldrb	r3, [r1]	@ zero_extendqisi2
	cmp	r3, #192
	beq	.L467
	movs	r5, #2
	b	.L455
.L467:
	.loc 1 2182 0
	movs	r2, #32
	adds	r0, r6, r2
.LVL724:
	bl	mem_cpy
.LVL725:
	.loc 1 2183 0
	ldrb	r3, [r6, #35]	@ zero_extendqisi2
	adds	r3, r3, #44
	ldr	r2, .L469
	umull	r2, r3, r2, r3
	lsrs	r3, r3, #3
	cmp	r7, r3, lsl #5
	bcc	.L462
	.loc 1 2186 0
	mov	r8, #64
	b	.L457
.LVL726:
.L456:
	.loc 1 2195 0
	add	r8, r8, #32
.LVL727:
	cmp	r7, r8
	bls	.L468
.LVL728:
.L457:
	.loc 1 2188 0
	movs	r1, #0
	mov	r0, r4
	bl	dir_next
.LVL729:
	mov	r5, r0
.LVL730:
	.loc 1 2189 0
	cmp	r0, #4
	beq	.L463
	.loc 1 2190 0
	cmp	r0, #0
	bne	.L455
	.loc 1 2191 0
	ldr	r1, [r4, #56]
	ldr	r0, [r4]
.LVL731:
	bl	move_window
.LVL732:
	.loc 1 2192 0
	mov	r5, r0
	cmp	r0, #0
	bne	.L455
	.loc 1 2193 0
	ldr	r1, [r4, #60]
	ldrb	r3, [r1]	@ zero_extendqisi2
	cmp	r3, #193
	bne	.L464
	.loc 1 2194 0
	cmp	r8, #608
	bcs	.L456
	.loc 1 2194 0 is_stmt 0 discriminator 1
	movs	r2, #32
	add	r0, r6, r8
.LVL733:
	bl	mem_cpy
.LVL734:
	b	.L456
.L468:
	.loc 1 2198 0 is_stmt 1
	cmp	r8, #608
	bhi	.L455
	.loc 1 2199 0
	mov	r0, r6
	bl	xdir_sum
.LVL735:
	mov	r4, r0
.LVL736:
	adds	r0, r6, #2
	bl	ld_word
.LVL737:
	cmp	r4, r0
	beq	.L455
	movs	r5, #2
	b	.L455
.LVL738:
.L459:
	.loc 1 2173 0
	movs	r5, #2
	b	.L455
.LVL739:
.L460:
	.loc 1 2177 0
	movs	r5, #2
	b	.L455
.LVL740:
.L462:
	.loc 1 2183 0
	movs	r5, #2
	b	.L455
.LVL741:
.L463:
	.loc 1 2189 0
	movs	r5, #2
	b	.L455
.L464:
	.loc 1 2193 0
	movs	r5, #2
	b	.L455
.L470:
	.align	2
.L469:
	.word	-2004318071
	.cfi_endproc
.LFE40:
	.size	load_xdir, .-load_xdir
	.section	.text.load_obj_xdir,"ax",%progbits
	.align	1
	.syntax unified
	.thumb
	.thumb_func
	.fpu fpv4-sp-d16
	.type	load_obj_xdir, %function
load_obj_xdir:
.LFB42:
	.loc 1 2231 0
	.cfi_startproc
	@ args = 0, pretend = 0, frame = 0
	@ frame_needed = 0, uses_anonymous_args = 0
.LVL742:
	push	{r4, lr}
	.cfi_def_cfa_offset 8
	.cfi_offset 4, -8
	.cfi_offset 14, -4
	mov	r4, r0
	.loc 1 2235 0
	ldr	r3, [r1]
	str	r3, [r0]
	.loc 1 2236 0
	ldr	r3, [r1, #32]
	str	r3, [r0, #8]
	.loc 1 2237 0
	ldrb	r3, [r1, #36]	@ zero_extendqisi2
	strb	r3, [r0, #7]
	.loc 1 2238 0
	ldr	r3, [r1, #36]
	bic	r3, r3, #255
	movs	r2, #0
	str	r3, [r0, #16]
	str	r2, [r0, #20]
	.loc 1 2239 0
	str	r2, [r0, #28]
	.loc 1 2240 0
	ldr	r1, [r1, #40]
.LVL743:
	str	r1, [r0, #76]
	.loc 1 2242 0
	bl	dir_sdi
.LVL744:
	.loc 1 2243 0
	mov	r3, r0
	cbz	r0, .L474
.LVL745:
.L472:
	.loc 1 2247 0
	mov	r0, r3
	pop	{r4, pc}
.LVL746:
.L474:
	.loc 1 2244 0
	mov	r0, r4
.LVL747:
	bl	load_xdir
.LVL748:
	mov	r3, r0
.LVL749:
	b	.L472
	.cfi_endproc
.LFE42:
	.size	load_obj_xdir, .-load_obj_xdir
	.section	.text.dir_read,"ax",%progbits
	.align	1
	.syntax unified
	.thumb
	.thumb_func
	.fpu fpv4-sp-d16
	.type	dir_read, %function
dir_read:
.LFB45:
	.loc 1 2338 0
	.cfi_startproc
	@ args = 0, pretend = 0, frame = 0
	@ frame_needed = 0, uses_anonymous_args = 0
.LVL750:
	push	{r3, r4, r5, r6, r7, r8, r9, lr}
	.cfi_def_cfa_offset 32
	.cfi_offset 3, -32
	.cfi_offset 4, -28
	.cfi_offset 5, -24
	.cfi_offset 6, -20
	.cfi_offset 7, -16
	.cfi_offset 8, -12
	.cfi_offset 9, -8
	.cfi_offset 14, -4
	mov	r4, r0
	mov	r8, r1
.LVL751:
	.loc 1 2340 0
	ldr	r6, [r0]
.LVL752:
	.loc 1 2343 0
	mov	r9, #255
	mov	r7, r9
	.loc 1 2339 0
	movs	r5, #4
	.loc 1 2346 0
	b	.L476
.LVL753:
.L494:
	.loc 1 2358 0
	cmp	r3, #133
	beq	.L493
.LVL754:
.L479:
	.loc 1 2396 0
	movs	r1, #0
	mov	r0, r4
	bl	dir_next
.LVL755:
	.loc 1 2397 0
	mov	r5, r0
	cmp	r0, #0
	bne	.L477
.LVL756:
.L476:
	.loc 1 2346 0
	ldr	r1, [r4, #56]
	cmp	r1, #0
	beq	.L477
	.loc 1 2347 0
	mov	r0, r6
	bl	move_window
.LVL757:
	.loc 1 2348 0
	mov	r5, r0
	cmp	r0, #0
	bne	.L477
	.loc 1 2349 0
	ldr	r1, [r4, #60]
	ldrb	r3, [r1]	@ zero_extendqisi2
.LVL758:
	.loc 1 2350 0
	cmp	r3, #0
	beq	.L485
	.loc 1 2354 0
	ldrb	r2, [r6]	@ zero_extendqisi2
	cmp	r2, #4
	beq	.L494
	.loc 1 2370 0
	ldrb	r2, [r1, #11]	@ zero_extendqisi2
	and	r2, r2, #63
.LVL759:
	strb	r2, [r4, #6]
	.loc 1 2372 0
	cmp	r3, #229
	beq	.L486
	.loc 1 2372 0 is_stmt 0 discriminator 1
	cmp	r3, #46
	beq	.L487
	.loc 1 2372 0 discriminator 2
	bic	r0, r2, #32
.LVL760:
	cmp	r0, #8
	ite	ne
	movne	r0, #0
	moveq	r0, #1
	cmp	r0, r8
	beq	.L495
	.loc 1 2373 0 is_stmt 1
	movs	r7, #255
.LVL761:
	b	.L479
.LVL762:
.L493:
	.loc 1 2359 0
	ldr	r3, [r4, #48]
.LVL763:
	str	r3, [r4, #76]
.LVL764:
	.loc 1 2360 0
	mov	r0, r4
.LVL765:
	bl	load_xdir
.LVL766:
	.loc 1 2361 0
	mov	r5, r0
	cbnz	r0, .L477
	.loc 1 2362 0
	ldr	r3, [r6, #16]
	ldrb	r3, [r3, #4]	@ zero_extendqisi2
	and	r3, r3, #63
	strb	r3, [r4, #6]
	b	.L477
.LVL767:
.L495:
	.loc 1 2375 0
	cmp	r2, #15
	bne	.L480
	.loc 1 2376 0
	tst	r3, #64
	beq	.L481
	.loc 1 2377 0
	ldrb	r9, [r1, #13]	@ zero_extendqisi2
.LVL768:
	.loc 1 2378 0
	and	r3, r3, #191
.LVL769:
	.loc 1 2379 0
	ldr	r2, [r4, #48]
.LVL770:
	str	r2, [r4, #76]
	.loc 1 2378 0
	mov	r7, r3
.LVL771:
.L481:
	.loc 1 2382 0
	cmp	r3, r7
	beq	.L496
	movs	r7, #255
.LVL772:
	b	.L479
.LVL773:
.L496:
	.loc 1 2382 0 is_stmt 0 discriminator 1
	ldrb	r3, [r1, #13]	@ zero_extendqisi2
.LVL774:
	cmp	r3, r9
	beq	.L497
	.loc 1 2382 0
	movs	r7, #255
.LVL775:
	b	.L479
.LVL776:
.L497:
	.loc 1 2382 0 discriminator 3
	ldr	r0, [r6, #12]
	bl	pick_lfn
.LVL777:
	cbz	r0, .L491
	.loc 1 2382 0 discriminator 5
	subs	r7, r7, #1
.LVL778:
	uxtb	r7, r7
	b	.L479
.LVL779:
.L480:
	.loc 1 2384 0 is_stmt 1
	cbnz	r7, .L482
	.loc 1 2384 0 is_stmt 0 discriminator 1
	mov	r0, r1
	bl	sum_sfn
.LVL780:
	cmp	r0, r9
	beq	.L477
.L482:
	.loc 1 2385 0 is_stmt 1
	mov	r3, #-1
	str	r3, [r4, #76]
	b	.L477
.LVL781:
.L486:
	.loc 1 2373 0
	movs	r7, #255
.LVL782:
	b	.L479
.LVL783:
.L487:
	movs	r7, #255
.LVL784:
	b	.L479
.LVL785:
.L491:
	.loc 1 2382 0
	movs	r7, #255
.LVL786:
	b	.L479
.LVL787:
.L485:
	.loc 1 2351 0
	movs	r5, #4
.LVL788:
.L477:
	.loc 1 2400 0
	cbz	r5, .L484
	.loc 1 2400 0 is_stmt 0 discriminator 1
	movs	r3, #0
	str	r3, [r4, #56]
.L484:
	.loc 1 2402 0 is_stmt 1
	mov	r0, r5
	pop	{r3, r4, r5, r6, r7, r8, r9, pc}
	.cfi_endproc
.LFE45:
	.size	dir_read, .-dir_read
	.section	.text.dir_alloc,"ax",%progbits
	.align	1
	.syntax unified
	.thumb
	.thumb_func
	.fpu fpv4-sp-d16
	.type	dir_alloc, %function
dir_alloc:
.LFB29:
	.loc 1 1796 0
	.cfi_startproc
	@ args = 0, pretend = 0, frame = 0
	@ frame_needed = 0, uses_anonymous_args = 0
.LVL789:
	push	{r3, r4, r5, r6, r7, lr}
	.cfi_def_cfa_offset 24
	.cfi_offset 3, -24
	.cfi_offset 4, -20
	.cfi_offset 5, -16
	.cfi_offset 6, -12
	.cfi_offset 7, -8
	.cfi_offset 14, -4
	mov	r4, r0
	mov	r7, r1
	.loc 1 1799 0
	ldr	r6, [r0]
.LVL790:
	.loc 1 1802 0
	movs	r1, #0
.LVL791:
	bl	dir_sdi
.LVL792:
	.loc 1 1803 0
	mov	r2, r0
	cbnz	r0, .L499
	.loc 1 1804 0
	movs	r5, #0
	b	.L504
.LVL793:
.L511:
	.loc 1 1809 0 discriminator 1
	ldr	r3, [r4, #60]
	ldrsb	r3, [r3]
	mvns	r3, r3
	lsrs	r3, r3, #31
.L501:
	.loc 1 1809 0 is_stmt 0 discriminator 10
	cbz	r3, .L508
	.loc 1 1813 0 is_stmt 1
	adds	r5, r5, #1
.LVL794:
	cmp	r5, r7
	beq	.L499
.LVL795:
.L503:
	.loc 1 1817 0
	movs	r1, #1
	mov	r0, r4
.LVL796:
	bl	dir_next
.LVL797:
	.loc 1 1818 0
	mov	r2, r0
	cbnz	r0, .L499
.LVL798:
.L504:
	.loc 1 1806 0
	ldr	r1, [r4, #56]
	mov	r0, r6
.LVL799:
	bl	move_window
.LVL800:
	.loc 1 1807 0
	mov	r2, r0
	cbnz	r0, .L499
	.loc 1 1809 0
	ldrb	r3, [r6]	@ zero_extendqisi2
	cmp	r3, #4
	beq	.L511
	.loc 1 1809 0 is_stmt 0 discriminator 2
	ldr	r3, [r4, #60]
	ldrb	r3, [r3]	@ zero_extendqisi2
	cmp	r3, #229
	beq	.L506
	.loc 1 1809 0 discriminator 5
	cbnz	r3, .L507
	.loc 1 1809 0
	movs	r3, #1
	b	.L501
.L506:
	movs	r3, #1
	b	.L501
.L507:
	movs	r3, #0
	b	.L501
.L508:
	.loc 1 1815 0 is_stmt 1
	movs	r5, #0
.LVL801:
	b	.L503
.L499:
.LVL802:
	.loc 1 1821 0
	cmp	r2, #4
	beq	.L512
.LVL803:
.L505:
	.loc 1 1823 0
	mov	r0, r2
	pop	{r3, r4, r5, r6, r7, pc}
.LVL804:
.L512:
	.loc 1 1821 0
	movs	r2, #7
.LVL805:
	b	.L505
	.cfi_endproc
.LFE29:
	.size	dir_alloc, .-dir_alloc
	.section	.text.store_xdir,"ax",%progbits
	.align	1
	.syntax unified
	.thumb
	.thumb_func
	.fpu fpv4-sp-d16
	.type	store_xdir, %function
store_xdir:
.LFB43:
	.loc 1 2259 0
	.cfi_startproc
	@ args = 0, pretend = 0, frame = 0
	@ frame_needed = 0, uses_anonymous_args = 0
.LVL806:
	push	{r3, r4, r5, r6, r7, lr}
	.cfi_def_cfa_offset 24
	.cfi_offset 3, -24
	.cfi_offset 4, -20
	.cfi_offset 5, -16
	.cfi_offset 6, -12
	.cfi_offset 7, -8
	.cfi_offset 14, -4
	mov	r4, r0
	.loc 1 2262 0
	ldr	r3, [r0]
	ldr	r6, [r3, #16]
.LVL807:
	.loc 1 2265 0
	mov	r0, r6
.LVL808:
	bl	xdir_sum
.LVL809:
	mov	r1, r0
	adds	r0, r6, #2
	bl	st_word
.LVL810:
	.loc 1 2266 0
	ldrb	r7, [r6, #1]	@ zero_extendqisi2
	adds	r7, r7, #1
.LVL811:
	.loc 1 2269 0
	ldr	r1, [r4, #76]
	mov	r0, r4
	bl	dir_sdi
.LVL812:
	mov	r5, r0
.LVL813:
.L514:
	.loc 1 2270 0
	cbnz	r5, .L515
	.loc 1 2271 0
	ldr	r1, [r4, #56]
	ldr	r0, [r4]
	bl	move_window
.LVL814:
	.loc 1 2272 0
	mov	r5, r0
	cbnz	r0, .L515
	.loc 1 2273 0
	movs	r2, #32
	mov	r1, r6
	ldr	r0, [r4, #60]
.LVL815:
	bl	mem_cpy
.LVL816:
	.loc 1 2274 0
	ldr	r3, [r4]
	movs	r2, #1
	strb	r2, [r3, #3]
.LVL817:
	.loc 1 2275 0
	subs	r7, r7, #1
.LVL818:
	beq	.L515
	.loc 1 2276 0
	adds	r6, r6, #32
.LVL819:
	.loc 1 2277 0
	movs	r1, #0
	mov	r0, r4
	bl	dir_next
.LVL820:
	mov	r5, r0
.LVL821:
	b	.L514
.LVL822:
.L515:
	.loc 1 2279 0
	cmp	r5, #2
	it	cs
	movcs	r5, #2
.LVL823:
	.loc 1 2280 0
	uxtb	r0, r5
	pop	{r3, r4, r5, r6, r7, pc}
	.cfi_endproc
.LFE43:
	.size	store_xdir, .-store_xdir
	.section	.text.dir_remove,"ax",%progbits
	.align	1
	.syntax unified
	.thumb
	.thumb_func
	.fpu fpv4-sp-d16
	.type	dir_remove, %function
dir_remove:
.LFB48:
	.loc 1 2602 0
	.cfi_startproc
	@ args = 0, pretend = 0, frame = 0
	@ frame_needed = 0, uses_anonymous_args = 0
.LVL824:
	push	{r4, r5, r6, lr}
	.cfi_def_cfa_offset 16
	.cfi_offset 4, -16
	.cfi_offset 5, -12
	.cfi_offset 6, -8
	.cfi_offset 14, -4
	mov	r4, r0
	.loc 1 2604 0
	ldr	r5, [r0]
.LVL825:
	.loc 1 2606 0
	ldr	r6, [r0, #48]
.LVL826:
	.loc 1 2608 0
	ldr	r1, [r0, #76]
	cmp	r1, #-1
	beq	.L524
	.loc 1 2608 0 is_stmt 0 discriminator 1
	bl	dir_sdi
.LVL827:
	.loc 1 2609 0 is_stmt 1 discriminator 1
	mov	r3, r0
	cbz	r0, .L524
	b	.L520
.L527:
	.loc 1 2614 0
	ldr	r1, [r4, #60]
	ldrb	r2, [r1]	@ zero_extendqisi2
	and	r2, r2, #127
	strb	r2, [r1]
.L523:
	.loc 1 2618 0
	movs	r2, #1
	strb	r2, [r5, #3]
	.loc 1 2619 0
	ldr	r2, [r4, #48]
	cmp	r2, r6
	bcs	.L521
	.loc 1 2620 0
	movs	r1, #0
	mov	r0, r4
.LVL828:
	bl	dir_next
.LVL829:
	.loc 1 2621 0
	mov	r3, r0
	cbnz	r0, .L521
.LVL830:
.L524:
	.loc 1 2611 0
	ldr	r1, [r4, #56]
	mov	r0, r5
	bl	move_window
.LVL831:
	.loc 1 2612 0
	mov	r3, r0
	cbnz	r0, .L521
	.loc 1 2613 0
	ldrb	r2, [r5]	@ zero_extendqisi2
	cmp	r2, #4
	beq	.L527
	.loc 1 2616 0
	ldr	r2, [r4, #60]
	movs	r1, #229
	strb	r1, [r2]
	b	.L523
.L521:
.LVL832:
	.loc 1 2622 0
	cmp	r3, #4
	beq	.L528
.LVL833:
.L520:
	.loc 1 2634 0
	mov	r0, r3
	pop	{r4, r5, r6, pc}
.LVL834:
.L528:
	.loc 1 2622 0
	movs	r3, #2
.LVL835:
	b	.L520
	.cfi_endproc
.LFE48:
	.size	dir_remove, .-dir_remove
	.section	.text.put_utf,"ax",%progbits
	.align	1
	.syntax unified
	.thumb
	.thumb_func
	.fpu fpv4-sp-d16
	.type	put_utf, %function
put_utf:
.LFB13:
	.loc 1 823 0
	.cfi_startproc
	@ args = 0, pretend = 0, frame = 0
	@ frame_needed = 0, uses_anonymous_args = 0
.LVL836:
	push	{r3, r4, r5, lr}
	.cfi_def_cfa_offset 16
	.cfi_offset 3, -16
	.cfi_offset 4, -12
	.cfi_offset 5, -8
	.cfi_offset 14, -4
	mov	r5, r1
	mov	r4, r2
	.loc 1 888 0
	movw	r1, #866
.LVL837:
	bl	ff_uni2oem
.LVL838:
	.loc 1 889 0
	cmp	r0, #255
	bls	.L530
	.loc 1 890 0
	cmp	r4, #1
	bhi	.L536
	movs	r0, #0
.LVL839:
.L531:
	.loc 1 899 0
	pop	{r3, r4, r5, pc}
.LVL840:
.L536:
	.loc 1 891 0
	ubfx	r3, r0, #8, #8
	strb	r3, [r5]
.LVL841:
	.loc 1 892 0
	strb	r0, [r5, #1]
	.loc 1 893 0
	movs	r0, #2
.LVL842:
	b	.L531
.LVL843:
.L530:
	.loc 1 895 0
	cbz	r0, .L533
	.loc 1 895 0 is_stmt 0 discriminator 2
	cbz	r4, .L534
.LVL844:
	.loc 1 896 0 is_stmt 1
	strb	r0, [r5]
	.loc 1 897 0
	movs	r0, #1
.LVL845:
	b	.L531
.LVL846:
.L533:
	.loc 1 895 0
	movs	r0, #0
.LVL847:
	b	.L531
.LVL848:
.L534:
	movs	r0, #0
.LVL849:
	b	.L531
	.cfi_endproc
.LFE13:
	.size	put_utf, .-put_utf
	.section	.text.get_xfileinfo,"ax",%progbits
	.align	1
	.syntax unified
	.thumb
	.thumb_func
	.fpu fpv4-sp-d16
	.type	get_xfileinfo, %function
get_xfileinfo:
.LFB39:
	.loc 1 2121 0
	.cfi_startproc
	@ args = 0, pretend = 0, frame = 0
	@ frame_needed = 0, uses_anonymous_args = 0
.LVL850:
	push	{r3, r4, r5, r6, r7, r8, r9, lr}
	.cfi_def_cfa_offset 32
	.cfi_offset 3, -32
	.cfi_offset 4, -28
	.cfi_offset 5, -24
	.cfi_offset 6, -20
	.cfi_offset 7, -16
	.cfi_offset 8, -12
	.cfi_offset 9, -8
	.cfi_offset 14, -4
	mov	r8, r0
	mov	r9, r1
.LVL851:
	.loc 1 2127 0
	movs	r6, #0
	.loc 1 2126 0
	movs	r4, #64
	.loc 1 2127 0
	mov	r5, r6
	mov	r7, r6
	.loc 1 2128 0
	b	.L538
.LVL852:
.L541:
	.loc 1 2135 0
	add	r1, r5, #24
	add	r1, r1, r9
	rsb	r2, r5, #255
	adds	r1, r1, #2
	orr	r0, r0, r7, lsl #16
.LVL853:
	bl	put_utf
.LVL854:
	uxth	r3, r0
.LVL855:
	.loc 1 2136 0
	cbz	r3, .L549
	.loc 1 2137 0
	add	r5, r5, r0
.LVL856:
	.loc 1 2138 0
	movs	r7, #0
.LVL857:
.L538:
	.loc 1 2128 0
	ldrb	r3, [r8, #35]	@ zero_extendqisi2
	cmp	r3, r6
	bls	.L539
	.loc 1 2129 0
	cmp	r4, #608
	bcs	.L547
	.loc 1 2130 0
	tst	r4, #31
	bne	.L540
	.loc 1 2130 0 is_stmt 0 discriminator 1
	adds	r4, r4, #2
.LVL858:
.L540:
	.loc 1 2131 0 is_stmt 1
	add	r0, r8, r4
	bl	ld_word
.LVL859:
	adds	r4, r4, #2
.LVL860:
	adds	r6, r6, #1
.LVL861:
	.loc 1 2132 0
	cmp	r7, #0
	bne	.L541
	.loc 1 2132 0 is_stmt 0 discriminator 1
	add	r3, r0, #10240
	uxth	r3, r3
	cmp	r3, #2048
	bcs	.L541
	.loc 1 2133 0 is_stmt 1
	mov	r7, r0
.LVL862:
	b	.L538
.LVL863:
.L547:
	.loc 1 2129 0
	movs	r5, #0
.LVL864:
.L539:
	.loc 1 2140 0
	cbnz	r7, .L550
	.loc 1 2141 0
	cbz	r5, .L544
	mov	r3, r5
	b	.L545
.LVL865:
.L549:
	.loc 1 2136 0
	movs	r5, #0
.LVL866:
	b	.L539
.LVL867:
.L550:
	.loc 1 2140 0
	movs	r5, #0
.LVL868:
.L544:
	.loc 1 2141 0 discriminator 1
	adds	r3, r5, #1
.LVL869:
	add	r5, r5, r9
	movs	r2, #63
	strb	r2, [r5, #26]
.L545:
	.loc 1 2142 0
	add	r3, r3, r9
.LVL870:
	movs	r2, #0
	strb	r2, [r3, #26]
	.loc 1 2143 0
	strb	r2, [r9, #13]
	.loc 1 2145 0
	ldrb	r3, [r8, #4]	@ zero_extendqisi2
	strb	r3, [r9, #12]
	.loc 1 2146 0
	tst	r3, #16
	bne	.L552
	.loc 1 2146 0 is_stmt 0 discriminator 1
	add	r0, r8, #56
	bl	ld_qword
.LVL871:
.L546:
	.loc 1 2146 0 discriminator 4
	strd	r0, [r9]
	.loc 1 2147 0 is_stmt 1 discriminator 4
	add	r0, r8, #12
	bl	ld_word
.LVL872:
	strh	r0, [r9, #10]	@ movhi
	.loc 1 2148 0 discriminator 4
	add	r0, r8, #14
	bl	ld_word
.LVL873:
	strh	r0, [r9, #8]	@ movhi
	.loc 1 2149 0 discriminator 4
	pop	{r3, r4, r5, r6, r7, r8, r9, pc}
.LVL874:
.L552:
	.loc 1 2146 0
	movs	r0, #0
	movs	r1, #0
	b	.L546
	.cfi_endproc
.LFE39:
	.size	get_xfileinfo, .-get_xfileinfo
	.section	.text.get_fileinfo,"ax",%progbits
	.align	1
	.syntax unified
	.thumb
	.thumb_func
	.fpu fpv4-sp-d16
	.type	get_fileinfo, %function
get_fileinfo:
.LFB49:
	.loc 1 2649 0
	.cfi_startproc
	@ args = 0, pretend = 0, frame = 0
	@ frame_needed = 0, uses_anonymous_args = 0
.LVL875:
	push	{r3, r4, r5, r6, r7, r8, r9, lr}
	.cfi_def_cfa_offset 32
	.cfi_offset 3, -32
	.cfi_offset 4, -28
	.cfi_offset 5, -24
	.cfi_offset 6, -20
	.cfi_offset 7, -16
	.cfi_offset 8, -12
	.cfi_offset 9, -8
	.cfi_offset 14, -4
	.loc 1 2653 0
	ldr	r9, [r0]
.LVL876:
	.loc 1 2659 0
	movs	r3, #0
	strb	r3, [r1, #26]
	.loc 1 2660 0
	ldr	r3, [r0, #56]
	cmp	r3, #0
	beq	.L554
	mov	r4, r1
	mov	r5, r0
	.loc 1 2664 0
	ldrb	r3, [r9]	@ zero_extendqisi2
	cmp	r3, #4
	beq	.L583
	.loc 1 2670 0
	ldr	r3, [r0, #76]
	cmp	r3, #-1
	beq	.L558
	.loc 1 2671 0
	movs	r7, #0
	mov	r6, r7
	mov	r8, r7
	b	.L557
.L583:
	.loc 1 2665 0
	ldr	r0, [r9, #16]
.LVL877:
	bl	get_xfileinfo
.LVL878:
	.loc 1 2666 0
	b	.L554
.LVL879:
.L559:
	.loc 1 2677 0
	add	r1, r6, #24
	add	r1, r1, r4
	rsb	r2, r6, #255
	adds	r1, r1, #2
	orr	r0, r0, r7, lsl #16
.LVL880:
	bl	put_utf
.LVL881:
	uxth	r3, r0
.LVL882:
	.loc 1 2678 0
	cbz	r3, .L577
	.loc 1 2679 0
	add	r6, r6, r0
.LVL883:
	.loc 1 2680 0
	movs	r7, #0
.LVL884:
.L557:
	.loc 1 2672 0
	ldr	r3, [r9, #12]
	ldrh	r0, [r3, r8, lsl #1]
	cbz	r0, .L561
	.loc 1 2673 0
	add	r8, r8, #1
.LVL885:
	.loc 1 2674 0
	cmp	r7, #0
	bne	.L559
	.loc 1 2674 0 is_stmt 0 discriminator 1
	add	r3, r0, #10240
	uxth	r3, r3
	cmp	r3, #2048
	bcs	.L559
	.loc 1 2675 0 is_stmt 1
	mov	r7, r0
.LVL886:
	b	.L557
.LVL887:
.L577:
	.loc 1 2678 0
	movs	r6, #0
.LVL888:
.L561:
	.loc 1 2682 0
	cbz	r7, .L563
	movs	r6, #0
.LVL889:
.L563:
	.loc 1 2683 0
	add	r6, r6, r4
.LVL890:
	movs	r3, #0
	strb	r3, [r6, #26]
.LVL891:
.L558:
	.loc 1 2703 0
	movs	r2, #0
	mov	r3, r2
	b	.L564
.LVL892:
.L566:
	.loc 1 2692 0
	cmp	r1, #9
	beq	.L584
.L567:
.LVL893:
	.loc 1 2703 0
	adds	r0, r4, r2
	strb	r3, [r0, #13]
	adds	r2, r2, #1
.LVL894:
.L565:
	mov	r3, r1
.LVL895:
.L564:
	.loc 1 2688 0
	cmp	r3, #10
	bhi	.L585
	.loc 1 2689 0
	ldr	r0, [r5, #60]
	adds	r1, r3, #1
.LVL896:
	ldrb	r3, [r0, r3]	@ zero_extendqisi2
.LVL897:
	.loc 1 2690 0
	cmp	r3, #32
	beq	.L565
	.loc 1 2691 0
	cmp	r3, #5
	bne	.L566
	movs	r3, #229
.LVL898:
	b	.L566
.LVL899:
.L584:
	.loc 1 2692 0 discriminator 1
	cmp	r2, #11
	bhi	.L567
.LVL900:
	.loc 1 2692 0 is_stmt 0 discriminator 2
	adds	r0, r4, r2
	movs	r6, #46
	strb	r6, [r0, #13]
	adds	r2, r2, #1
.LVL901:
	b	.L567
.LVL902:
.L585:
	.loc 1 2706 0 is_stmt 1
	adds	r3, r4, r2
.LVL903:
	movs	r1, #0
	strb	r1, [r3, #13]
	.loc 1 2708 0
	ldrb	r3, [r4, #26]	@ zero_extendqisi2
	cbnz	r3, .L569
	.loc 1 2709 0
	cmp	r2, #0
	bne	.L580
	.loc 1 2710 0
	adds	r1, r2, #1
.LVL904:
	add	r2, r2, r4
	movs	r3, #63
	strb	r3, [r2, #26]
.L571:
	.loc 1 2718 0
	add	r1, r1, r4
.LVL905:
	movs	r3, #0
	strb	r3, [r1, #26]
	.loc 1 2719 0
	ldr	r3, [r5, #60]
	ldrb	r3, [r3, #12]	@ zero_extendqisi2
	cbnz	r3, .L569
	.loc 1 2719 0 is_stmt 0 discriminator 1
	strb	r3, [r4, #13]
.L569:
	.loc 1 2734 0 is_stmt 1
	ldr	r3, [r5, #60]
	ldrb	r3, [r3, #11]	@ zero_extendqisi2
	strb	r3, [r4, #12]
	.loc 1 2735 0
	ldr	r0, [r5, #60]
	adds	r0, r0, #28
	bl	ld_dword
.LVL906:
	str	r0, [r4]
	movs	r3, #0
	str	r3, [r4, #4]
	.loc 1 2736 0
	ldr	r0, [r5, #60]
	adds	r0, r0, #22
	bl	ld_word
.LVL907:
	strh	r0, [r4, #10]	@ movhi
	.loc 1 2737 0
	ldr	r0, [r5, #60]
	adds	r0, r0, #24
	bl	ld_word
.LVL908:
	strh	r0, [r4, #8]	@ movhi
.LVL909:
.L554:
	.loc 1 2738 0
	pop	{r3, r4, r5, r6, r7, r8, r9, pc}
.LVL910:
.L581:
	.loc 1 2714 0
	movs	r0, #8
	b	.L573
.L572:
	.loc 1 2715 0 discriminator 2
	adds	r2, r4, r1
	strb	r3, [r2, #26]
	.loc 1 2712 0 discriminator 2
	adds	r1, r1, #1
.LVL911:
.L570:
	.loc 1 2712 0 is_stmt 0 discriminator 1
	adds	r3, r4, r1
	ldrb	r3, [r3, #13]	@ zero_extendqisi2
	cmp	r3, #0
	beq	.L571
	.loc 1 2713 0 is_stmt 1
	uxth	r3, r3
.LVL912:
	.loc 1 2714 0
	sub	r2, r3, #65
	uxth	r2, r2
	cmp	r2, #25
	bhi	.L572
	.loc 1 2714 0 is_stmt 0 discriminator 1
	ldr	r2, [r5, #60]
	ldrb	r2, [r2, #12]	@ zero_extendqisi2
	cmp	r1, #8
	bls	.L581
	.loc 1 2714 0
	movs	r0, #16
.L573:
	.loc 1 2714 0 discriminator 5
	tst	r2, r0
	beq	.L572
	.loc 1 2714 0 discriminator 6
	adds	r3, r3, #32
.LVL913:
	uxth	r3, r3
.LVL914:
	b	.L572
.LVL915:
.L580:
	.loc 1 2712 0 is_stmt 1
	movs	r1, #0
	b	.L570
	.cfi_endproc
.LFE49:
	.size	get_fileinfo, .-get_fileinfo
	.section	.text.tchar2uni,"ax",%progbits
	.align	1
	.syntax unified
	.thumb
	.thumb_func
	.fpu fpv4-sp-d16
	.type	tchar2uni, %function
tchar2uni:
.LFB12:
	.loc 1 748 0
	.cfi_startproc
	@ args = 0, pretend = 0, frame = 0
	@ frame_needed = 0, uses_anonymous_args = 0
.LVL916:
	push	{r3, r4, r5, r6, r7, lr}
	.cfi_def_cfa_offset 24
	.cfi_offset 3, -24
	.cfi_offset 4, -20
	.cfi_offset 5, -16
	.cfi_offset 6, -12
	.cfi_offset 7, -8
	.cfi_offset 14, -4
	mov	r6, r0
	.loc 1 750 0
	ldr	r5, [r0]
.LVL917:
	.loc 1 799 0
	adds	r7, r5, #1
.LVL918:
	ldrb	r0, [r5]	@ zero_extendqisi2
.LVL919:
	uxth	r4, r0
.LVL920:
	.loc 1 800 0
	bl	dbc_1st
.LVL921:
	cbz	r0, .L587
	.loc 1 801 0
	adds	r7, r5, #2
.LVL922:
	ldrb	r5, [r5, #1]	@ zero_extendqisi2
.LVL923:
	.loc 1 802 0
	mov	r0, r5
	bl	dbc_2nd
.LVL924:
	cbz	r0, .L590
	.loc 1 803 0
	add	r4, r5, r4, lsl #8
.LVL925:
	uxth	r4, r4
.LVL926:
.L587:
	.loc 1 805 0
	cbnz	r4, .L593
.LVL927:
.L589:
	.loc 1 809 0
	mov	r0, r4
.LVL928:
	.loc 1 812 0
	str	r7, [r6]
.LVL929:
.L586:
	.loc 1 814 0
	pop	{r3, r4, r5, r6, r7, pc}
.LVL930:
.L593:
	.loc 1 806 0
	movw	r1, #866
	mov	r0, r4
	bl	ff_oem2uni
.LVL931:
	.loc 1 807 0
	mov	r4, r0
	cmp	r0, #0
	bne	.L589
	mov	r0, #-1
.LVL932:
	b	.L586
.LVL933:
.L590:
	.loc 1 802 0
	mov	r0, #-1
	b	.L586
	.cfi_endproc
.LFE12:
	.size	tchar2uni, .-tchar2uni
	.section	.text.create_name,"ax",%progbits
	.align	1
	.syntax unified
	.thumb
	.thumb_func
	.fpu fpv4-sp-d16
	.type	create_name, %function
create_name:
.LFB52:
	.loc 1 2831 0
	.cfi_startproc
	@ args = 0, pretend = 0, frame = 16
	@ frame_needed = 0, uses_anonymous_args = 0
.LVL934:
	push	{r4, r5, r6, r7, r8, r9, r10, fp, lr}
	.cfi_def_cfa_offset 36
	.cfi_offset 4, -36
	.cfi_offset 5, -32
	.cfi_offset 6, -28
	.cfi_offset 7, -24
	.cfi_offset 8, -20
	.cfi_offset 9, -16
	.cfi_offset 10, -12
	.cfi_offset 11, -8
	.cfi_offset 14, -4
	sub	sp, sp, #20
	.cfi_def_cfa_offset 56
	mov	r8, r0
	mov	r7, r1
	.loc 1 2841 0
	ldr	r3, [r1]
	str	r3, [sp, #12]
	ldr	r3, [r0]
	ldr	r5, [r3, #12]
.LVL935:
	movs	r4, #0
	b	.L599
.LVL936:
.L596:
	.loc 1 2846 0
	uxth	r6, r0
.LVL937:
	.loc 1 2847 0
	cmp	r6, #31
	bls	.L600
	.loc 1 2847 0 is_stmt 0 discriminator 1
	cmp	r6, #47
	beq	.L600
	.loc 1 2847 0 discriminator 2
	cmp	r6, #92
	beq	.L600
	.loc 1 2848 0 is_stmt 1
	cmp	r6, #127
	bls	.L643
.LVL938:
.L598:
	.loc 1 2849 0
	cmp	r4, #254
	bhi	.L638
.LVL939:
	.loc 1 2850 0
	strh	r6, [r5, r4, lsl #1]	@ movhi
	adds	r4, r4, #1
.LVL940:
.L599:
	.loc 1 2843 0
	add	r0, sp, #12
	bl	tchar2uni
.LVL941:
	.loc 1 2844 0
	cmp	r0, #-1
	beq	.L636
	.loc 1 2845 0
	cmp	r0, #65536
	bcc	.L596
.LVL942:
	.loc 1 2845 0 is_stmt 0 discriminator 1
	lsrs	r3, r0, #16
	strh	r3, [r5, r4, lsl #1]	@ movhi
	adds	r4, r4, #1
.LVL943:
	b	.L596
.LVL944:
.L643:
	.loc 1 2848 0 is_stmt 1 discriminator 1
	mov	r1, r6
	ldr	r0, .L652
.LVL945:
	bl	chk_chr
.LVL946:
	cmp	r0, #0
	beq	.L598
	.loc 1 2848 0 is_stmt 0
	movs	r0, #6
	b	.L595
.LVL947:
.L601:
	.loc 1 2852 0 is_stmt 1 discriminator 4
	adds	r3, r3, #1
	str	r3, [sp, #12]
.L600:
	.loc 1 2852 0 is_stmt 0 discriminator 1
	ldr	r3, [sp, #12]
	ldrb	r2, [r3]	@ zero_extendqisi2
	cmp	r2, #47
	beq	.L601
	.loc 1 2852 0 discriminator 3
	cmp	r2, #92
	beq	.L601
	.loc 1 2853 0 is_stmt 1
	str	r3, [r7]
	.loc 1 2854 0
	cmp	r6, #31
	bhi	.L639
	movs	r7, #4
.LVL948:
	b	.L603
.LVL949:
.L639:
	movs	r7, #0
.LVL950:
	.loc 1 2867 0
	b	.L603
.LVL951:
.L604:
	.loc 1 2870 0
	subs	r4, r4, #1
.LVL952:
.L603:
	.loc 1 2867 0
	cbz	r4, .L605
	.loc 1 2868 0
	add	r3, r4, #-2147483648
	subs	r3, r3, #1
	ldrh	r3, [r5, r3, lsl #1]
.LVL953:
	.loc 1 2869 0
	cmp	r3, #32
	beq	.L604
	.loc 1 2869 0 is_stmt 0 discriminator 1
	cmp	r3, #46
	beq	.L604
.LVL954:
.L605:
	.loc 1 2872 0 is_stmt 1
	movs	r3, #0
	strh	r3, [r5, r4, lsl #1]	@ movhi
	.loc 1 2873 0
	cmp	r4, #0
	beq	.L640
	.loc 1 2876 0
	mov	r6, r3
	b	.L607
.LVL955:
.L608:
	.loc 1 2876 0 is_stmt 0 discriminator 3
	adds	r6, r6, #1
.LVL956:
.L607:
	.loc 1 2876 0 discriminator 1
	ldrh	r3, [r5, r6, lsl #1]
	cmp	r3, #32
	beq	.L608
	.loc 1 2877 0 is_stmt 1
	cbnz	r6, .L609
	.loc 1 2877 0 is_stmt 0 discriminator 2
	cmp	r3, #46
	bne	.L611
.L609:
	.loc 1 2877 0 discriminator 3
	orr	r7, r7, #3
.LVL957:
.L611:
	.loc 1 2878 0 is_stmt 1 discriminator 1
	cbz	r4, .L612
	.loc 1 2878 0 is_stmt 0 discriminator 2
	add	r3, r4, #-2147483648
	subs	r3, r3, #1
	ldrh	r3, [r5, r3, lsl #1]
	cmp	r3, #46
	beq	.L612
	.loc 1 2878 0 discriminator 3
	subs	r4, r4, #1
.LVL958:
	b	.L611
.L612:
	.loc 1 2880 0 is_stmt 1
	movs	r2, #11
	movs	r1, #32
	add	r0, r8, #64
.LVL959:
	bl	mem_set
.LVL960:
	.loc 1 2881 0
	mov	fp, #8
	movs	r3, #0
	str	r3, [sp, #4]
	mov	r10, r3
.LVL961:
.L614:
	.loc 1 2883 0
	add	r9, r6, #1
.LVL962:
	ldrh	r6, [r5, r6, lsl #1]
.LVL963:
	.loc 1 2884 0
	cbz	r6, .L615
	.loc 1 2885 0
	cmp	r6, #32
	beq	.L616
	.loc 1 2885 0 is_stmt 0 discriminator 1
	cmp	r6, #46
	beq	.L644
.L617:
	.loc 1 2890 0 is_stmt 1
	ldr	r3, [sp, #4]
	cmp	r3, fp
	bcs	.L619
	.loc 1 2890 0 is_stmt 0 discriminator 1
	cmp	r4, r9
	beq	.L619
	.loc 1 2901 0 is_stmt 1
	cmp	r6, #127
	bhi	.L645
.LVL964:
.L623:
	.loc 1 2918 0
	cmp	r6, #255
	bls	.L624
	.loc 1 2919 0
	add	r3, fp, #-1
	ldr	r2, [sp, #4]
	cmp	r3, r2
	bls	.L646
	.loc 1 2923 0
	ldr	r1, [sp, #4]
	adds	r3, r1, #1
.LVL965:
	ubfx	r2, r6, #8, #8
	add	r1, r8, r1
	strb	r2, [r1, #64]
	b	.L626
.LVL966:
.L644:
	.loc 1 2885 0 discriminator 2
	cmp	r4, r9
	beq	.L617
.L616:
	.loc 1 2886 0
	orr	r7, r7, #3
.LVL967:
	.loc 1 2883 0
	mov	r6, r9
.LVL968:
	.loc 1 2887 0
	b	.L614
.LVL969:
.L619:
	.loc 1 2891 0
	cmp	fp, #11
	beq	.L647
	.loc 1 2895 0
	cmp	r4, r9
	beq	.L622
	.loc 1 2895 0 is_stmt 0 discriminator 1
	orr	r7, r7, #3
.LVL970:
.L622:
	.loc 1 2896 0 is_stmt 1
	cmp	r4, r9
	bcs	.L648
.L615:
	.loc 1 2939 0
	ldrb	r3, [r8, #64]	@ zero_extendqisi2
	cmp	r3, #229
	beq	.L649
.L630:
	.loc 1 2941 0
	cmp	fp, #8
	beq	.L650
.L631:
	.loc 1 2942 0
	and	r3, r10, #12
	cmp	r3, #12
	beq	.L632
	.loc 1 2942 0 is_stmt 0 discriminator 2
	and	r3, r10, #3
	cmp	r3, #3
	bne	.L633
.L632:
	.loc 1 2942 0 discriminator 3
	orr	r7, r7, #2
.LVL971:
.L633:
	.loc 1 2943 0 is_stmt 1
	tst	r7, #2
	bne	.L634
	.loc 1 2944 0
	tst	r10, #1
	beq	.L635
	.loc 1 2944 0 is_stmt 0 discriminator 1
	orr	r7, r7, #16
.LVL972:
.L635:
	.loc 1 2945 0 is_stmt 1
	tst	r10, #4
	beq	.L634
	.loc 1 2945 0 is_stmt 0 discriminator 1
	orr	r7, r7, #8
.LVL973:
.L634:
	.loc 1 2948 0 is_stmt 1
	strb	r7, [r8, #75]
	.loc 1 2950 0
	movs	r0, #0
.LVL974:
.L595:
	.loc 1 3015 0
	add	sp, sp, #20
	.cfi_remember_state
	.cfi_def_cfa_offset 36
	@ sp needed
	pop	{r4, r5, r6, r7, r8, r9, r10, fp, pc}
.LVL975:
.L647:
	.cfi_restore_state
	.loc 1 2892 0
	orr	r7, r7, #3
.LVL976:
	.loc 1 2893 0
	b	.L615
.L648:
.LVL977:
	.loc 1 2897 0
	lsl	r10, r10, #2
.LVL978:
	uxtb	r10, r10
.LVL979:
	mov	r6, r4
.LVL980:
	mov	fp, #11
	movs	r3, #8
	str	r3, [sp, #4]
	.loc 1 2898 0
	b	.L614
.LVL981:
.L645:
	.loc 1 2902 0
	orr	r7, r7, #2
.LVL982:
	.loc 1 2911 0
	movw	r1, #866
	mov	r0, r6
	bl	ff_uni2oem
.LVL983:
	mov	r6, r0
.LVL984:
	.loc 1 2912 0
	tst	r0, #128
	beq	.L623
	.loc 1 2912 0 is_stmt 0 discriminator 1
	and	r6, r0, #127
	ldr	r3, .L652+4
	add	r3, r3, r6
	ldrb	r6, [r3, #16]	@ zero_extendqisi2
.LVL985:
	b	.L623
.L646:
	.loc 1 2920 0 is_stmt 1
	orr	r7, r7, #3
.LVL986:
	.loc 1 2883 0
	mov	r6, r9
.LVL987:
	.loc 1 2921 0
	str	fp, [sp, #4]
	b	.L614
.LVL988:
.L624:
	.loc 1 2925 0
	cbnz	r6, .L651
.L627:
.LVL989:
	.loc 1 2926 0
	orr	r7, r7, #3
.LVL990:
	ldr	r3, [sp, #4]
	movs	r6, #95
.LVL991:
.L626:
	.loc 1 2936 0
	adds	r2, r3, #1
	str	r2, [sp, #4]
.LVL992:
	add	r3, r3, r8
	strb	r6, [r3, #64]
	.loc 1 2883 0
	mov	r6, r9
.LVL993:
	b	.L614
.LVL994:
.L651:
	.loc 1 2925 0 discriminator 1
	mov	r1, r6
	ldr	r0, .L652+8
	bl	chk_chr
.LVL995:
	cmp	r0, #0
	bne	.L627
	.loc 1 2928 0
	sub	r3, r6, #65
	uxth	r3, r3
	cmp	r3, #25
	bhi	.L629
	.loc 1 2929 0
	orr	r10, r10, #2
.LVL996:
.L629:
	.loc 1 2931 0
	sub	r3, r6, #97
	uxth	r3, r3
	cmp	r3, #25
	bhi	.L641
	.loc 1 2932 0
	orr	r10, r10, #1
.LVL997:
	subs	r6, r6, #32
.LVL998:
	uxth	r6, r6
.LVL999:
	ldr	r3, [sp, #4]
	b	.L626
.L641:
	ldr	r3, [sp, #4]
	b	.L626
.L649:
	.loc 1 2939 0 discriminator 1
	movs	r3, #5
	strb	r3, [r8, #64]
	b	.L630
.L650:
	.loc 1 2941 0 discriminator 1
	lsl	r10, r10, #2
.LVL1000:
	uxtb	r10, r10
.LVL1001:
	b	.L631
.LVL1002:
.L636:
	.loc 1 2844 0
	movs	r0, #6
.LVL1003:
	b	.L595
.LVL1004:
.L638:
	.loc 1 2849 0
	movs	r0, #6
	b	.L595
.LVL1005:
.L640:
	.loc 1 2873 0
	movs	r0, #6
.LVL1006:
	b	.L595
.L653:
	.align	2
.L652:
	.word	.LC3
	.word	.LANCHOR0
	.word	.LC4
	.cfi_endproc
.LFE52:
	.size	create_name, .-create_name
	.section	.text.xname_sum,"ax",%progbits
	.align	1
	.syntax unified
	.thumb
	.thumb_func
	.fpu fpv4-sp-d16
	.type	xname_sum, %function
xname_sum:
.LFB38:
	.loc 1 2086 0
	.cfi_startproc
	@ args = 0, pretend = 0, frame = 0
	@ frame_needed = 0, uses_anonymous_args = 0
.LVL1007:
	push	{r3, r4, r5, lr}
	.cfi_def_cfa_offset 16
	.cfi_offset 3, -16
	.cfi_offset 4, -12
	.cfi_offset 5, -8
	.cfi_offset 14, -4
.LVL1008:
	.loc 1 2088 0
	movs	r4, #0
	.loc 1 2091 0
	b	.L655
.LVL1009:
.L656:
	.loc 1 2092 0
	bl	ff_wtoupper
.LVL1010:
	uxth	r0, r0
.LVL1011:
	.loc 1 2093 0
	lsrs	r3, r4, #1
	add	r4, r3, r4, lsl #15
.LVL1012:
	uxtb	r3, r0
	uxtah	r4, r3, r4
	uxth	r3, r4
.LVL1013:
	.loc 1 2094 0
	lsrs	r4, r3, #1
	add	r4, r4, r3, lsl #15
	lsrs	r0, r0, #8
.LVL1014:
	uxtah	r4, r0, r4
	uxth	r4, r4
.LVL1015:
	.loc 1 2091 0
	mov	r0, r5
.LVL1016:
.L655:
	adds	r5, r0, #2
.LVL1017:
	ldrh	r0, [r0]
.LVL1018:
	cmp	r0, #0
	bne	.L656
	.loc 1 2097 0
	mov	r0, r4
.LVL1019:
	pop	{r3, r4, r5, pc}
	.cfi_endproc
.LFE38:
	.size	xname_sum, .-xname_sum
	.section	.text.create_xdir,"ax",%progbits
	.align	1
	.syntax unified
	.thumb
	.thumb_func
	.fpu fpv4-sp-d16
	.type	create_xdir, %function
create_xdir:
.LFB44:
	.loc 1 2292 0
	.cfi_startproc
	@ args = 0, pretend = 0, frame = 0
	@ frame_needed = 0, uses_anonymous_args = 0
.LVL1020:
	push	{r3, r4, r5, r6, r7, r8, r9, lr}
	.cfi_def_cfa_offset 32
	.cfi_offset 3, -32
	.cfi_offset 4, -28
	.cfi_offset 5, -24
	.cfi_offset 6, -20
	.cfi_offset 7, -16
	.cfi_offset 8, -12
	.cfi_offset 9, -8
	.cfi_offset 14, -4
	mov	r7, r0
	mov	r8, r1
	.loc 1 2299 0
	movs	r2, #64
	movs	r1, #0
.LVL1021:
	bl	mem_set
.LVL1022:
	.loc 1 2300 0
	movs	r3, #133
	strb	r3, [r7]
	.loc 1 2301 0
	movs	r3, #192
	strb	r3, [r7, #32]
.LVL1023:
	.loc 1 2305 0
	movs	r5, #1
	movs	r6, #0
	mov	r9, r6
	.loc 1 2304 0
	movs	r4, #64
	b	.L661
.LVL1024:
.L659:
	.loc 1 2310 0
	mov	r1, r5
	adds	r0, r7, r4
	bl	st_word
.LVL1025:
	.loc 1 2311 0
	adds	r4, r4, #2
.LVL1026:
	.loc 1 2312 0
	tst	r4, #31
	beq	.L664
.LVL1027:
.L660:
	.loc 1 2309 0
	cmp	r5, #0
	beq	.L659
	.loc 1 2309 0 is_stmt 0 discriminator 1
	ldrh	r5, [r8, r6, lsl #1]
.LVL1028:
	cmp	r5, #0
	beq	.L659
	.loc 1 2309 0 discriminator 2
	adds	r6, r6, #1
.LVL1029:
	uxtb	r6, r6
.LVL1030:
	b	.L659
.L664:
	.loc 1 2313 0 is_stmt 1
	add	r3, r9, #1
	uxtb	r3, r3
.LVL1031:
	.loc 1 2314 0
	ldrh	r2, [r8, r6, lsl #1]
	cbz	r2, .L665
	.loc 1 2313 0
	mov	r9, r3
.LVL1032:
.L661:
	.loc 1 2307 0
	adds	r3, r4, #1
.LVL1033:
	movs	r2, #193
	strb	r2, [r7, r4]
.LVL1034:
	movs	r2, #0
	strb	r2, [r7, r3]
	adds	r4, r4, #2
.LVL1035:
	b	.L660
.LVL1036:
.L665:
	.loc 1 2316 0
	strb	r6, [r7, #35]
	.loc 1 2317 0
	add	r9, r9, #2
	strb	r9, [r7, #1]
	.loc 1 2318 0
	mov	r0, r8
	bl	xname_sum
.LVL1037:
	mov	r1, r0
	add	r0, r7, #36
	bl	st_word
.LVL1038:
	.loc 1 2319 0
	pop	{r3, r4, r5, r6, r7, r8, r9, pc}
	.cfi_endproc
.LFE44:
	.size	create_xdir, .-create_xdir
	.section	.text.cmp_lfn,"ax",%progbits
	.align	1
	.syntax unified
	.thumb
	.thumb_func
	.fpu fpv4-sp-d16
	.type	cmp_lfn, %function
cmp_lfn:
.LFB32:
	.loc 1 1875 0
	.cfi_startproc
	@ args = 0, pretend = 0, frame = 0
	@ frame_needed = 0, uses_anonymous_args = 0
.LVL1039:
	push	{r4, r5, r6, r7, r8, r9, r10, lr}
	.cfi_def_cfa_offset 32
	.cfi_offset 4, -32
	.cfi_offset 5, -28
	.cfi_offset 6, -24
	.cfi_offset 7, -20
	.cfi_offset 8, -16
	.cfi_offset 9, -12
	.cfi_offset 10, -8
	.cfi_offset 14, -4
	mov	r9, r0
	mov	r7, r1
	.loc 1 1880 0
	add	r0, r1, #26
.LVL1040:
	bl	ld_word
.LVL1041:
	cbnz	r0, .L672
	.loc 1 1882 0
	ldrb	r5, [r7]	@ zero_extendqisi2
	and	r5, r5, #63
	subs	r5, r5, #1
	add	r3, r5, r5, lsl #1
	add	r5, r5, r3, lsl #2
.LVL1042:
	.loc 1 1884 0
	mov	r8, #1
	movs	r4, #0
	b	.L668
.LVL1043:
.L669:
	.loc 1 1892 0
	movw	r3, #65535
	cmp	r0, r3
	bne	.L675
.LVL1044:
.L670:
	.loc 1 1884 0 discriminator 2
	adds	r4, r4, #1
.LVL1045:
.L668:
	.loc 1 1884 0 is_stmt 0 discriminator 1
	cmp	r4, #12
	bhi	.L680
	.loc 1 1885 0 is_stmt 1
	ldr	r3, .L681
	ldrb	r0, [r3, r4]	@ zero_extendqisi2
	add	r0, r0, r7
	bl	ld_word
.LVL1046:
	mov	r6, r0
.LVL1047:
	.loc 1 1886 0
	cmp	r8, #0
	beq	.L669
	.loc 1 1887 0
	cmp	r5, #254
	bhi	.L673
	.loc 1 1887 0 is_stmt 0 discriminator 1
	bl	ff_wtoupper
.LVL1048:
	mov	r8, r0
.LVL1049:
	add	r10, r5, #1
.LVL1050:
	ldrh	r0, [r9, r5, lsl #1]
	bl	ff_wtoupper
.LVL1051:
	cmp	r8, r0
	bne	.L674
	.loc 1 1890 0 is_stmt 1
	mov	r8, r6
	.loc 1 1887 0
	mov	r5, r10
	b	.L670
.LVL1052:
.L680:
	.loc 1 1896 0
	ldrb	r3, [r7]	@ zero_extendqisi2
	tst	r3, #64
	beq	.L676
	.loc 1 1896 0 is_stmt 0 discriminator 1
	cmp	r8, #0
	beq	.L677
	.loc 1 1896 0 discriminator 2
	ldrh	r3, [r9, r5, lsl #1]
	cbnz	r3, .L678
	.loc 1 1898 0 is_stmt 1
	movs	r0, #1
	b	.L666
.LVL1053:
.L672:
	.loc 1 1880 0
	movs	r0, #0
.L666:
	.loc 1 1899 0
	pop	{r4, r5, r6, r7, r8, r9, r10, pc}
.LVL1054:
.L673:
	.loc 1 1888 0
	movs	r0, #0
.LVL1055:
	b	.L666
.LVL1056:
.L674:
	movs	r0, #0
	b	.L666
.LVL1057:
.L675:
	.loc 1 1892 0
	movs	r0, #0
.LVL1058:
	b	.L666
.L676:
	.loc 1 1898 0
	movs	r0, #1
	b	.L666
.L677:
	movs	r0, #1
	b	.L666
.L678:
	.loc 1 1896 0
	movs	r0, #0
	b	.L666
.L682:
	.align	2
.L681:
	.word	.LANCHOR0
	.cfi_endproc
.LFE32:
	.size	cmp_lfn, .-cmp_lfn
	.section	.text.dir_find,"ax",%progbits
	.align	1
	.syntax unified
	.thumb
	.thumb_func
	.fpu fpv4-sp-d16
	.type	dir_find, %function
dir_find:
.LFB46:
	.loc 1 2415 0
	.cfi_startproc
	@ args = 0, pretend = 0, frame = 0
	@ frame_needed = 0, uses_anonymous_args = 0
.LVL1059:
	push	{r3, r4, r5, r6, r7, r8, r9, r10, fp, lr}
	.cfi_def_cfa_offset 40
	.cfi_offset 3, -40
	.cfi_offset 4, -36
	.cfi_offset 5, -32
	.cfi_offset 6, -28
	.cfi_offset 7, -24
	.cfi_offset 8, -20
	.cfi_offset 9, -16
	.cfi_offset 10, -12
	.cfi_offset 11, -8
	.cfi_offset 14, -4
	mov	r4, r0
	.loc 1 2417 0
	ldr	r7, [r0]
.LVL1060:
	.loc 1 2423 0
	movs	r1, #0
	bl	dir_sdi
.LVL1061:
	.loc 1 2424 0
	mov	r8, r0
	cmp	r0, #0
	bne	.L684
	.loc 1 2426 0
	ldrb	r3, [r7]	@ zero_extendqisi2
	cmp	r3, #4
	beq	.L706
.LVL1062:
	.loc 1 2447 0
	mov	r3, #-1
	str	r3, [r4, #76]
	mov	r9, #255
	mov	r6, r9
	b	.L700
.LVL1063:
.L706:
.LBB7:
	.loc 1 2429 0
	ldr	r0, [r7, #12]
.LVL1064:
	bl	xname_sum
.LVL1065:
	mov	fp, r0
.LVL1066:
	.loc 1 2431 0
	b	.L686
.LVL1067:
.L689:
	.loc 1 2438 0
	ldr	r0, [r7, #16]
	add	r0, r0, r6
	bl	ld_word
.LVL1068:
	bl	ff_wtoupper
.LVL1069:
	mov	r10, r0
	ldr	r3, [r7, #12]
	ldrh	r0, [r3, r9, lsl #1]
	bl	ff_wtoupper
.LVL1070:
	cmp	r10, r0
	bne	.L690
	.loc 1 2436 0 discriminator 2
	subs	r5, r5, #1
.LVL1071:
	uxtb	r5, r5
.LVL1072:
	adds	r6, r6, #2
.LVL1073:
	add	r9, r9, #1
.LVL1074:
.L688:
	.loc 1 2436 0 is_stmt 0 discriminator 1
	cbz	r5, .L690
	.loc 1 2437 0 is_stmt 1
	tst	r6, #31
	bne	.L689
	.loc 1 2437 0 is_stmt 0 discriminator 1
	adds	r6, r6, #2
.LVL1075:
	b	.L689
.L690:
	.loc 1 2440 0 is_stmt 1
	cbnz	r5, .L686
	.loc 1 2440 0 is_stmt 0 discriminator 1
	ldr	r3, [r7, #12]
	ldrh	r3, [r3, r9, lsl #1]
	cmp	r3, #0
	beq	.L684
.LVL1076:
.L686:
	.loc 1 2431 0 is_stmt 1
	movs	r1, #0
	mov	r0, r4
	bl	dir_read
.LVL1077:
	mov	r8, r0
	cmp	r0, #0
	bne	.L684
	.loc 1 2435 0
	ldr	r5, [r7, #16]
	add	r0, r5, #36
.LVL1078:
	bl	ld_word
.LVL1079:
	cmp	r0, fp
	bne	.L686
	.loc 1 2436 0
	ldrb	r5, [r5, #35]	@ zero_extendqisi2
.LVL1080:
	mov	r9, #0
	movs	r6, #64
	b	.L688
.LVL1081:
.L693:
.LBE7:
	.loc 1 2457 0
	mov	r3, #-1
.LVL1082:
	str	r3, [r4, #76]
	movs	r6, #255
.LVL1083:
.L695:
	.loc 1 2479 0
	movs	r1, #0
	mov	r0, r4
	bl	dir_next
.LVL1084:
	.loc 1 2480 0
	mov	r8, r0
	cmp	r0, #0
	bne	.L684
.LVL1085:
.L700:
	.loc 1 2450 0
	ldr	r1, [r4, #56]
	mov	r0, r7
.LVL1086:
	bl	move_window
.LVL1087:
	.loc 1 2451 0
	mov	r8, r0
	cmp	r0, #0
	bne	.L684
	.loc 1 2452 0
	ldr	r5, [r4, #60]
	ldrb	r3, [r5]	@ zero_extendqisi2
.LVL1088:
	.loc 1 2453 0
	cmp	r3, #0
	beq	.L701
	.loc 1 2455 0
	ldrb	r1, [r5, #11]	@ zero_extendqisi2
	and	r2, r1, #63
.LVL1089:
	strb	r2, [r4, #6]
	.loc 1 2456 0
	cmp	r3, #229
	beq	.L693
	.loc 1 2456 0 is_stmt 0 discriminator 1
	tst	r1, #8
	beq	.L694
	.loc 1 2456 0 discriminator 2
	cmp	r2, #15
	bne	.L693
.L694:
	.loc 1 2459 0 is_stmt 1
	cmp	r2, #15
	beq	.L707
	.loc 1 2470 0
	cbnz	r6, .L698
	.loc 1 2470 0 is_stmt 0 discriminator 1
	mov	r0, r5
.LVL1090:
	bl	sum_sfn
.LVL1091:
	cmp	r0, r9
	beq	.L684
.L698:
	.loc 1 2471 0 is_stmt 1
	ldrb	r3, [r4, #75]	@ zero_extendqisi2
	tst	r3, #1
	bne	.L699
	.loc 1 2471 0 is_stmt 0 discriminator 1
	movs	r2, #11
	add	r1, r4, #64
	mov	r0, r5
	bl	mem_cmp
.LVL1092:
	cbz	r0, .L684
.L699:
.LVL1093:
	.loc 1 2472 0 is_stmt 1
	mov	r3, #-1
	str	r3, [r4, #76]
	movs	r6, #255
	b	.L695
.LVL1094:
.L707:
	.loc 1 2460 0
	ldrb	r2, [r4, #75]	@ zero_extendqisi2
.LVL1095:
	tst	r2, #64
	bne	.L695
	.loc 1 2461 0
	tst	r3, #64
	beq	.L697
	.loc 1 2462 0
	ldrb	r9, [r5, #13]	@ zero_extendqisi2
.LVL1096:
	.loc 1 2463 0
	and	r3, r3, #191
.LVL1097:
	.loc 1 2464 0
	ldr	r2, [r4, #48]
	str	r2, [r4, #76]
	.loc 1 2463 0
	mov	r6, r3
.LVL1098:
.L697:
	.loc 1 2467 0
	cmp	r3, r6
	beq	.L708
	movs	r6, #255
.LVL1099:
	b	.L695
.LVL1100:
.L708:
	.loc 1 2467 0 is_stmt 0 discriminator 1
	ldrb	r3, [r5, #13]	@ zero_extendqisi2
.LVL1101:
	cmp	r3, r9
	beq	.L709
	.loc 1 2467 0
	movs	r6, #255
.LVL1102:
	b	.L695
.LVL1103:
.L709:
	.loc 1 2467 0 discriminator 3
	mov	r1, r5
	ldr	r0, [r7, #12]
.LVL1104:
	bl	cmp_lfn
.LVL1105:
	cbz	r0, .L704
	.loc 1 2467 0 discriminator 5
	subs	r6, r6, #1
.LVL1106:
	uxtb	r6, r6
	b	.L695
.LVL1107:
.L704:
	.loc 1 2467 0
	movs	r6, #255
.LVL1108:
	b	.L695
.LVL1109:
.L701:
	.loc 1 2453 0 is_stmt 1
	mov	r8, #4
.LVL1110:
.L684:
	.loc 1 2483 0
	mov	r0, r8
	pop	{r3, r4, r5, r6, r7, r8, r9, r10, fp, pc}
	.cfi_endproc
.LFE46:
	.size	dir_find, .-dir_find
	.section	.text.follow_path,"ax",%progbits
	.align	1
	.syntax unified
	.thumb
	.thumb_func
	.fpu fpv4-sp-d16
	.type	follow_path, %function
follow_path:
.LFB53:
	.loc 1 3028 0
	.cfi_startproc
	@ args = 0, pretend = 0, frame = 8
	@ frame_needed = 0, uses_anonymous_args = 0
.LVL1111:
	push	{r4, r5, lr}
	.cfi_def_cfa_offset 12
	.cfi_offset 4, -12
	.cfi_offset 5, -8
	.cfi_offset 14, -4
	sub	sp, sp, #12
	.cfi_def_cfa_offset 24
	mov	r4, r0
	str	r1, [sp, #4]
	.loc 1 3031 0
	ldr	r5, [r0]
.LVL1112:
	.loc 1 3040 0
	b	.L711
.L712:
	.loc 1 3040 0 is_stmt 0 discriminator 4
	adds	r3, r3, #1
	str	r3, [sp, #4]
.L711:
	.loc 1 3040 0 discriminator 1
	ldr	r3, [sp, #4]
	ldrb	r2, [r3]	@ zero_extendqisi2
	cmp	r2, #47
	beq	.L712
	.loc 1 3040 0 discriminator 3
	cmp	r2, #92
	beq	.L712
	.loc 1 3041 0 is_stmt 1
	movs	r2, #0
	str	r2, [r4, #8]
	.loc 1 3044 0
	str	r2, [r4, #28]
	.loc 1 3060 0
	ldrb	r3, [r3]	@ zero_extendqisi2
	cmp	r3, #31
	bhi	.L713
	.loc 1 3061 0
	movs	r3, #128
	strb	r3, [r4, #75]
	.loc 1 3062 0
	mov	r1, r2
.LVL1113:
	mov	r0, r4
.LVL1114:
	bl	dir_sdi
.LVL1115:
	mov	r3, r0
.LVL1116:
.L714:
	.loc 1 3102 0
	mov	r0, r3
	add	sp, sp, #12
	.cfi_remember_state
	.cfi_def_cfa_offset 12
	@ sp needed
	pop	{r4, r5, pc}
.LVL1117:
.L721:
	.cfi_restore_state
	.loc 1 3071 0
	cmp	r0, #4
	bne	.L714
	.loc 1 3077 0
	tst	r2, #4
	bne	.L714
	movs	r3, #5
	b	.L714
.L722:
	.loc 1 3089 0
	ldr	r3, [r4, #8]
	str	r3, [r4, #32]
	.loc 1 3090 0
	ldr	r3, [r4, #16]
	bic	r3, r3, #255
	ldrb	r2, [r4, #7]	@ zero_extendqisi2
.LVL1118:
	orrs	r3, r3, r2
	str	r3, [r4, #36]
	.loc 1 3091 0
	ldr	r3, [r4, #76]
	str	r3, [r4, #40]
	.loc 1 3092 0
	mov	r1, r4
	mov	r0, r5
.LVL1119:
	bl	init_alloc_info
.LVL1120:
.L713:
	.loc 1 3066 0
	add	r1, sp, #4
	mov	r0, r4
	bl	create_name
.LVL1121:
	.loc 1 3067 0
	mov	r3, r0
	cmp	r0, #0
	bne	.L714
	.loc 1 3068 0
	mov	r0, r4
.LVL1122:
	bl	dir_find
.LVL1123:
	.loc 1 3069 0
	ldrb	r2, [r4, #75]	@ zero_extendqisi2
.LVL1124:
	.loc 1 3070 0
	mov	r3, r0
	cmp	r0, #0
	bne	.L721
	.loc 1 3082 0
	tst	r2, #4
	bne	.L714
	.loc 1 3084 0
	ldrb	r3, [r4, #6]	@ zero_extendqisi2
	tst	r3, #16
	beq	.L719
	.loc 1 3088 0
	ldrb	r3, [r5]	@ zero_extendqisi2
	cmp	r3, #4
	beq	.L722
	.loc 1 3096 0
	add	r1, r5, #60
	ldr	r3, [r4, #48]
	ubfx	r3, r3, #0, #9
	add	r1, r1, r3
	mov	r0, r5
.LVL1125:
	bl	ld_clust
.LVL1126:
	str	r0, [r4, #8]
	b	.L713
.LVL1127:
.L719:
	.loc 1 3085 0
	movs	r3, #5
	b	.L714
	.cfi_endproc
.LFE53:
	.size	follow_path, .-follow_path
	.section	.text.dir_register,"ax",%progbits
	.align	1
	.syntax unified
	.thumb
	.thumb_func
	.fpu fpv4-sp-d16
	.type	dir_register, %function
dir_register:
.LFB47:
	.loc 1 2496 0
	.cfi_startproc
	@ args = 0, pretend = 0, frame = 104
	@ frame_needed = 0, uses_anonymous_args = 0
.LVL1128:
	push	{r4, r5, r6, r7, r8, r9, lr}
	.cfi_def_cfa_offset 28
	.cfi_offset 4, -28
	.cfi_offset 5, -24
	.cfi_offset 6, -20
	.cfi_offset 7, -16
	.cfi_offset 8, -12
	.cfi_offset 9, -8
	.cfi_offset 14, -4
	sub	sp, sp, #108
	.cfi_def_cfa_offset 136
	.loc 1 2498 0
	ldr	r5, [r0]
.LVL1129:
	.loc 1 2504 0
	ldrb	r3, [r0, #75]	@ zero_extendqisi2
	tst	r3, #160
	bne	.L737
	.loc 1 2505 0
	movs	r4, #0
	b	.L725
.LVL1130:
.L726:
	.loc 1 2505 0 is_stmt 0 discriminator 3
	adds	r4, r4, #1
.LVL1131:
.L725:
	.loc 1 2505 0 discriminator 1
	ldr	r3, [r5, #12]
	ldrh	r3, [r3, r4, lsl #1]
	cmp	r3, #0
	bne	.L726
	mov	r6, r0
	.loc 1 2508 0 is_stmt 1
	ldrb	r3, [r5]	@ zero_extendqisi2
	cmp	r3, #4
	beq	.L743
	.loc 1 2539 0
	add	r7, r0, #64
	movs	r2, #12
	mov	r1, r7
	add	r0, sp, #92
.LVL1132:
	bl	mem_cpy
.LVL1133:
	.loc 1 2540 0
	ldrb	r3, [sp, #103]	@ zero_extendqisi2
	tst	r3, #1
	beq	.L730
	.loc 1 2541 0
	movs	r3, #64
	strb	r3, [r6, #75]
.LVL1134:
	.loc 1 2542 0
	mov	r8, #1
.LVL1135:
.L731:
	.loc 1 2542 0 is_stmt 0 discriminator 1
	cmp	r8, #99
	bhi	.L732
	.loc 1 2543 0 is_stmt 1
	mov	r3, r8
	ldr	r2, [r5, #12]
	add	r1, sp, #92
	mov	r0, r7
	bl	gen_numname
.LVL1136:
	.loc 1 2544 0
	mov	r0, r6
	bl	dir_find
.LVL1137:
	.loc 1 2545 0
	mov	r9, r0
	cmp	r0, #0
	bne	.L732
	.loc 1 2542 0 discriminator 2
	add	r8, r8, #1
.LVL1138:
	b	.L731
.LVL1139:
.L743:
	.loc 1 2509 0
	adds	r4, r4, #14
.LVL1140:
	ldr	r3, .L748
	umull	r3, r4, r3, r4
.LVL1141:
	lsrs	r4, r4, #3
.LVL1142:
	.loc 1 2510 0
	adds	r1, r4, #2
.LVL1143:
	bl	dir_alloc
.LVL1144:
	.loc 1 2511 0
	mov	r9, r0
	cmp	r0, #0
	bne	.L724
	.loc 1 2512 0
	ldr	r3, [r6, #48]
	add	r4, r4, #134217728
.LVL1145:
	adds	r4, r4, #1
.LVL1146:
	sub	r4, r3, r4, lsl #5
.LVL1147:
	str	r4, [r6, #76]
	.loc 1 2514 0
	ldrb	r3, [r6, #7]	@ zero_extendqisi2
	tst	r3, #4
	beq	.L728
	.loc 1 2515 0
	bic	r3, r3, #4
	strb	r3, [r6, #7]
	.loc 1 2516 0
	mov	r0, r6
.LVL1148:
	bl	fill_first_frag
.LVL1149:
	.loc 1 2517 0
	cbz	r0, .L744
	mov	r9, r0
	b	.L724
.L744:
	.loc 1 2518 0
	mov	r2, #-1
	ldr	r1, [r6, #52]
	mov	r0, r6
.LVL1150:
	bl	fill_last_frag
.LVL1151:
	.loc 1 2519 0
	cmp	r0, #0
	bne	.L739
	.loc 1 2520 0
	ldr	r3, [r6, #8]
	cbnz	r3, .L745
.L728:
	.loc 1 2534 0
	ldr	r1, [r5, #12]
	ldr	r0, [r5, #16]
.LVL1152:
	bl	create_xdir
.LVL1153:
	.loc 1 2535 0
	b	.L724
.LVL1154:
.L745:
.LBB8:
	.loc 1 2523 0
	mov	r1, r6
	mov	r0, sp
.LVL1155:
	bl	load_obj_xdir
.LVL1156:
	.loc 1 2524 0
	mov	r3, r0
	cbz	r0, .L746
.L729:
	.loc 1 2524 0 is_stmt 0 discriminator 2
	mov	r9, r3
	b	.L724
.L746:
	.loc 1 2525 0 is_stmt 1
	ldrh	r1, [r5, #10]
	lsls	r1, r1, #9
	ldrd	r2, [r6, #16]
	adds	r7, r2, r1
	adc	r8, r3, #0
	strd	r7, [r6, #16]
	.loc 1 2526 0
	ldr	r0, [r5, #16]
.LVL1157:
	mov	r2, r7
	mov	r3, r8
	adds	r0, r0, #56
	bl	st_qword
.LVL1158:
	.loc 1 2527 0
	ldr	r0, [r5, #16]
	ldrd	r2, [r6, #16]
	adds	r0, r0, #40
	bl	st_qword
.LVL1159:
	.loc 1 2528 0
	ldrb	r3, [r6, #7]	@ zero_extendqisi2
	ldr	r2, [r5, #16]
	orr	r3, r3, #1
	strb	r3, [r2, #33]
	.loc 1 2529 0
	mov	r0, sp
	bl	store_xdir
.LVL1160:
	.loc 1 2530 0
	mov	r3, r0
	cmp	r0, #0
	beq	.L728
	b	.L729
.LVL1161:
.L732:
.LBE8:
	.loc 1 2547 0
	cmp	r8, #100
	beq	.L740
	.loc 1 2548 0
	cmp	r9, #4
	bne	.L724
	.loc 1 2549 0
	ldrb	r3, [sp, #103]	@ zero_extendqisi2
	strb	r3, [r6, #75]
.LVL1162:
.L730:
	.loc 1 2553 0
	ldrb	r3, [sp, #103]	@ zero_extendqisi2
	tst	r3, #2
	beq	.L741
	.loc 1 2553 0 is_stmt 0 discriminator 1
	adds	r4, r4, #12
.LVL1163:
	ldr	r3, .L748+4
	umull	r3, r4, r3, r4
.LVL1164:
	lsrs	r4, r4, #2
	adds	r4, r4, #1
.L734:
.LVL1165:
	.loc 1 2554 0 is_stmt 1 discriminator 4
	mov	r1, r4
	mov	r0, r6
	bl	dir_alloc
.LVL1166:
	.loc 1 2555 0 discriminator 4
	mov	r9, r0
	cbnz	r0, .L735
.LVL1167:
	.loc 1 2555 0 is_stmt 0 discriminator 1
	subs	r4, r4, #1
.LVL1168:
	bne	.L747
.L735:
.LVL1169:
	.loc 1 2575 0 is_stmt 1
	cmp	r9, #0
	bne	.L724
	.loc 1 2576 0
	ldr	r1, [r6, #56]
	mov	r0, r5
	bl	move_window
.LVL1170:
	.loc 1 2577 0
	mov	r9, r0
	cmp	r0, #0
	bne	.L724
	.loc 1 2578 0
	movs	r2, #32
	movs	r1, #0
	ldr	r0, [r6, #60]
.LVL1171:
	bl	mem_set
.LVL1172:
	.loc 1 2579 0
	movs	r2, #11
	mov	r1, r7
	ldr	r0, [r6, #60]
	bl	mem_cpy
.LVL1173:
	.loc 1 2581 0
	ldrb	r3, [r6, #75]	@ zero_extendqisi2
	ldr	r2, [r6, #60]
	and	r3, r3, #24
	strb	r3, [r2, #12]
	.loc 1 2583 0
	movs	r3, #1
	strb	r3, [r5, #3]
	b	.L724
.LVL1174:
.L741:
	.loc 1 2553 0
	movs	r4, #1
.LVL1175:
	b	.L734
.LVL1176:
.L747:
	.loc 1 2556 0
	ldr	r1, [r6, #48]
	sub	r1, r1, r4, lsl #5
	mov	r0, r6
.LVL1177:
	bl	dir_sdi
.LVL1178:
	.loc 1 2557 0
	mov	r9, r0
	cmp	r0, #0
	bne	.L735
	.loc 1 2558 0
	mov	r0, r7
.LVL1179:
	bl	sum_sfn
.LVL1180:
	mov	r8, r0
.LVL1181:
.L736:
	.loc 1 2560 0
	ldr	r1, [r6, #56]
	mov	r0, r5
	bl	move_window
.LVL1182:
	.loc 1 2561 0
	mov	r9, r0
	cmp	r0, #0
	bne	.L735
	.loc 1 2562 0
	mov	r3, r8
	uxtb	r2, r4
	ldr	r1, [r6, #60]
	ldr	r0, [r5, #12]
.LVL1183:
	bl	put_lfn
.LVL1184:
	.loc 1 2563 0
	movs	r3, #1
	strb	r3, [r5, #3]
	.loc 1 2564 0
	movs	r1, #0
	mov	r0, r6
	bl	dir_next
.LVL1185:
	.loc 1 2565 0
	mov	r9, r0
	cmp	r0, #0
	bne	.L735
.LVL1186:
	.loc 1 2565 0 is_stmt 0 discriminator 1
	subs	r4, r4, #1
.LVL1187:
	bne	.L736
	b	.L735
.LVL1188:
.L737:
	.loc 1 2504 0 is_stmt 1
	mov	r9, #6
.LVL1189:
.L724:
	.loc 1 2588 0
	mov	r0, r9
	add	sp, sp, #108
	.cfi_remember_state
	.cfi_def_cfa_offset 28
	@ sp needed
	pop	{r4, r5, r6, r7, r8, r9, pc}
.LVL1190:
.L739:
	.cfi_restore_state
	.loc 1 2519 0
	mov	r9, r0
	b	.L724
.LVL1191:
.L740:
	.loc 1 2547 0
	mov	r9, #7
.LVL1192:
	b	.L724
.L749:
	.align	2
.L748:
	.word	-2004318071
	.word	1321528399
	.cfi_endproc
.LFE47:
	.size	dir_register, .-dir_register
	.section	.text.sync_fs,"ax",%progbits
	.align	1
	.syntax unified
	.thumb
	.thumb_func
	.fpu fpv4-sp-d16
	.type	sync_fs, %function
sync_fs:
.LFB16:
	.loc 1 1098 0
	.cfi_startproc
	@ args = 0, pretend = 0, frame = 0
	@ frame_needed = 0, uses_anonymous_args = 0
.LVL1193:
	push	{r4, r5, r6, lr}
	.cfi_def_cfa_offset 16
	.cfi_offset 4, -16
	.cfi_offset 5, -12
	.cfi_offset 6, -8
	.cfi_offset 14, -4
	mov	r4, r0
	.loc 1 1102 0
	bl	sync_window
.LVL1194:
	.loc 1 1103 0
	mov	r5, r0
	cbnz	r0, .L751
	.loc 1 1104 0
	ldrb	r3, [r4]	@ zero_extendqisi2
	cmp	r3, #3
	beq	.L755
.LVL1195:
.L752:
	.loc 1 1118 0
	movs	r2, #0
	mov	r1, r2
	ldrb	r0, [r4, #1]	@ zero_extendqisi2
	bl	disk_ioctl
.LVL1196:
	cbz	r0, .L751
	movs	r5, #1
.L751:
.LVL1197:
	.loc 1 1122 0
	mov	r0, r5
	pop	{r4, r5, r6, pc}
.LVL1198:
.L755:
	.loc 1 1104 0 discriminator 1
	ldrb	r3, [r4, #4]	@ zero_extendqisi2
	cmp	r3, #1
	bne	.L752
	.loc 1 1106 0
	add	r6, r4, #60
	mov	r2, #512
	movs	r1, #0
	mov	r0, r6
.LVL1199:
	bl	mem_set
.LVL1200:
	.loc 1 1107 0
	movw	r1, #43605
	addw	r0, r4, #570
	bl	st_word
.LVL1201:
	.loc 1 1108 0
	ldr	r1, .L756
	mov	r0, r6
	bl	st_dword
.LVL1202:
	.loc 1 1109 0
	ldr	r1, .L756+4
	add	r0, r4, #544
	bl	st_dword
.LVL1203:
	.loc 1 1110 0
	ldr	r1, [r4, #24]
	add	r0, r4, #548
	bl	st_dword
.LVL1204:
	.loc 1 1111 0
	ldr	r1, [r4, #20]
	add	r0, r4, #552
	bl	st_dword
.LVL1205:
	.loc 1 1113 0
	ldr	r2, [r4, #36]
	adds	r2, r2, #1
	str	r2, [r4, #56]
	.loc 1 1114 0
	movs	r3, #1
	mov	r1, r6
	ldrb	r0, [r4, #1]	@ zero_extendqisi2
	bl	disk_write
.LVL1206:
	.loc 1 1115 0
	movs	r3, #0
	strb	r3, [r4, #4]
	b	.L752
.L757:
	.align	2
.L756:
	.word	1096897106
	.word	1631679090
	.cfi_endproc
.LFE16:
	.size	sync_fs, .-sync_fs
	.section	.text.f_mount,"ax",%progbits
	.align	1
	.global	f_mount
	.syntax unified
	.thumb
	.thumb_func
	.fpu fpv4-sp-d16
	.type	f_mount, %function
f_mount:
.LFB58:
	.loc 1 3502 0
	.cfi_startproc
	@ args = 0, pretend = 0, frame = 16
	@ frame_needed = 0, uses_anonymous_args = 0
.LVL1207:
	push	{r4, lr}
	.cfi_def_cfa_offset 8
	.cfi_offset 4, -8
	.cfi_offset 14, -4
	sub	sp, sp, #16
	.cfi_def_cfa_offset 24
	str	r0, [sp, #4]
	str	r1, [sp]
	mov	r4, r2
	.loc 1 3506 0
	add	r0, sp, #16
.LVL1208:
	str	r1, [r0, #-4]!
	.loc 1 3510 0
	bl	get_ldnumber
.LVL1209:
	.loc 1 3511 0
	cmp	r0, #0
	blt	.L762
	.loc 1 3512 0
	ldr	r3, .L766
	ldr	r3, [r3, r0, lsl #2]
.LVL1210:
	.loc 1 3514 0
	cbz	r3, .L760
	.loc 1 3521 0
	movs	r2, #0
	strb	r2, [r3]
.L760:
	.loc 1 3524 0
	ldr	r3, [sp, #4]
.LVL1211:
	cbz	r3, .L761
	.loc 1 3525 0
	movs	r2, #0
	strb	r2, [r3]
.L761:
	.loc 1 3530 0
	ldr	r3, .L766
	ldr	r2, [sp, #4]
	str	r2, [r3, r0, lsl #2]
	.loc 1 3532 0
	cbnz	r4, .L765
	movs	r0, #0
.LVL1212:
.L759:
	.loc 1 3536 0
	add	sp, sp, #16
	.cfi_remember_state
	.cfi_def_cfa_offset 8
	@ sp needed
	pop	{r4, pc}
.LVL1213:
.L765:
	.cfi_restore_state
	.loc 1 3534 0
	movs	r2, #0
	add	r1, sp, #4
	mov	r0, sp
.LVL1214:
	bl	find_volume
.LVL1215:
	.loc 1 3535 0
	b	.L759
.LVL1216:
.L762:
	.loc 1 3511 0
	movs	r0, #11
.LVL1217:
	b	.L759
.L767:
	.align	2
.L766:
	.word	.LANCHOR1
	.cfi_endproc
.LFE58:
	.size	f_mount, .-f_mount
	.section	.text.f_open,"ax",%progbits
	.align	1
	.global	f_open
	.syntax unified
	.thumb
	.thumb_func
	.fpu fpv4-sp-d16
	.type	f_open, %function
f_open:
.LFB59:
	.loc 1 3550 0
	.cfi_startproc
	@ args = 0, pretend = 0, frame = 104
	@ frame_needed = 0, uses_anonymous_args = 0
.LVL1218:
	push	{r4, r5, r6, r7, r8, r9, r10, fp, lr}
	.cfi_def_cfa_offset 36
	.cfi_offset 4, -36
	.cfi_offset 5, -32
	.cfi_offset 6, -28
	.cfi_offset 7, -24
	.cfi_offset 8, -20
	.cfi_offset 9, -16
	.cfi_offset 10, -12
	.cfi_offset 11, -8
	.cfi_offset 14, -4
	sub	sp, sp, #108
	.cfi_def_cfa_offset 144
	str	r1, [sp, #4]
	.loc 1 3561 0
	cmp	r0, #0
	beq	.L788
	mov	r4, r0
	mov	r6, r2
	.loc 1 3564 0
	and	r7, r2, #63
.LVL1219:
	.loc 1 3565 0
	mov	r2, r7
	add	r1, sp, #12
.LVL1220:
	add	r0, sp, #4
.LVL1221:
	bl	find_volume
.LVL1222:
	.loc 1 3566 0
	mov	r5, r0
	cbz	r0, .L799
.LVL1223:
.L770:
	.loc 1 3723 0
	cbz	r5, .L769
.LVL1224:
.L787:
	.loc 1 3723 0 is_stmt 0 discriminator 1
	movs	r3, #0
	str	r3, [r4]
.LVL1225:
.L769:
	.loc 1 3726 0 is_stmt 1
	mov	r0, r5
	add	sp, sp, #108
	.cfi_remember_state
	.cfi_def_cfa_offset 36
	@ sp needed
	pop	{r4, r5, r6, r7, r8, r9, r10, fp, pc}
.LVL1226:
.L799:
	.cfi_restore_state
	.loc 1 3567 0
	ldr	r3, [sp, #12]
	str	r3, [sp, #16]
	.loc 1 3569 0
	ldr	r1, [sp, #4]
	add	r0, sp, #16
.LVL1227:
	bl	follow_path
.LVL1228:
	.loc 1 3571 0
	mov	r5, r0
	cbnz	r0, .L771
	.loc 1 3572 0
	ldrsb	r3, [sp, #91]
	cmp	r3, #0
	blt	.L800
.L771:
.LVL1229:
	.loc 1 3582 0
	tst	r6, #28
	beq	.L772
	.loc 1 3583 0
	cmp	r5, #0
	beq	.L773
	.loc 1 3584 0
	cmp	r5, #4
	beq	.L801
.L774:
	.loc 1 3591 0
	orr	r7, r7, #8
.LVL1230:
.L775:
	.loc 1 3600 0
	cmp	r5, #0
	bne	.L776
	.loc 1 3600 0 is_stmt 0 discriminator 1
	tst	r7, #8
	beq	.L776
	.loc 1 3602 0 is_stmt 1
	ldr	r0, [sp, #12]
	ldrb	r3, [r0]	@ zero_extendqisi2
	cmp	r3, #4
	beq	.L802
	.loc 1 3621 0
	ldr	r6, [sp, #76]
	mov	r1, r6
	bl	ld_clust
.LVL1231:
	mov	r8, r0
.LVL1232:
	.loc 1 3622 0
	bl	get_fattime
.LVL1233:
	mov	r1, r0
	add	r0, r6, #14
	bl	st_dword
.LVL1234:
	.loc 1 3623 0
	ldr	r3, [sp, #76]
	movs	r2, #32
	strb	r2, [r3, #11]
	.loc 1 3624 0
	movs	r2, #0
	ldr	r1, [sp, #76]
	ldr	r0, [sp, #12]
	bl	st_clust
.LVL1235:
	.loc 1 3625 0
	movs	r1, #0
	ldr	r0, [sp, #76]
	adds	r0, r0, #28
	bl	st_dword
.LVL1236:
	.loc 1 3626 0
	ldr	r3, [sp, #12]
	movs	r2, #1
	strb	r2, [r3, #3]
	.loc 1 3627 0
	cmp	r8, #0
	beq	.L776
	.loc 1 3628 0
	ldr	r3, [sp, #12]
	ldr	r6, [r3, #56]
.LVL1237:
	.loc 1 3629 0
	movs	r2, #0
	mov	r1, r8
	add	r0, sp, #16
	bl	remove_chain
.LVL1238:
	.loc 1 3630 0
	mov	r5, r0
	cmp	r0, #0
	bne	.L776
	.loc 1 3631 0
	mov	r1, r6
	ldr	r0, [sp, #12]
.LVL1239:
	bl	move_window
.LVL1240:
	mov	r5, r0
.LVL1241:
	.loc 1 3632 0
	add	r3, r8, #-1
	ldr	r2, [sp, #12]
	str	r3, [r2, #20]
	b	.L776
.LVL1242:
.L800:
	.loc 1 3573 0
	movs	r5, #6
	b	.L771
.LVL1243:
.L801:
	.loc 1 3588 0
	add	r0, sp, #16
	bl	dir_register
.LVL1244:
	mov	r5, r0
.LVL1245:
	b	.L774
.L773:
	.loc 1 3594 0
	ldrb	r3, [sp, #22]	@ zero_extendqisi2
	tst	r3, #17
	bne	.L790
	.loc 1 3597 0
	tst	r6, #4
	beq	.L775
	movs	r5, #8
.LVL1246:
	b	.L776
.LVL1247:
.L802:
	.loc 1 3604 0
	str	r0, [r4]
	.loc 1 3605 0
	mov	r1, r4
	ldr	r0, [sp, #12]
	bl	init_alloc_info
.LVL1248:
	.loc 1 3607 0
	ldr	r3, [sp, #12]
	ldr	r0, [r3, #16]
	movs	r2, #30
	movs	r1, #0
	adds	r0, r0, #2
	bl	mem_set
.LVL1249:
	.loc 1 3608 0
	ldr	r3, [sp, #12]
	ldr	r0, [r3, #16]
	movs	r2, #26
	movs	r1, #0
	adds	r0, r0, #38
	bl	mem_set
.LVL1250:
	.loc 1 3609 0
	ldr	r3, [sp, #12]
	ldr	r2, [r3, #16]
	movs	r1, #32
	strb	r1, [r2, #4]
	.loc 1 3610 0
	ldr	r5, [r3, #16]
.LVL1251:
	bl	get_fattime
.LVL1252:
	mov	r1, r0
	add	r0, r5, #8
	bl	st_dword
.LVL1253:
	.loc 1 3611 0
	ldr	r3, [sp, #12]
	ldr	r3, [r3, #16]
	movs	r2, #1
	strb	r2, [r3, #33]
	.loc 1 3612 0
	add	r0, sp, #16
	bl	store_xdir
.LVL1254:
	.loc 1 3613 0
	mov	r5, r0
	cbnz	r0, .L776
	.loc 1 3613 0 is_stmt 0 discriminator 1
	ldr	r1, [r4, #8]
	cbz	r1, .L776
	.loc 1 3614 0 is_stmt 1
	movs	r2, #0
	mov	r0, r4
.LVL1255:
	bl	remove_chain
.LVL1256:
	mov	r5, r0
.LVL1257:
	.loc 1 3615 0
	ldr	r3, [r4, #8]
	subs	r3, r3, #1
	ldr	r2, [sp, #12]
	str	r3, [r2, #20]
	b	.L776
.L772:
	.loc 1 3639 0
	cbnz	r5, .L776
	.loc 1 3640 0
	ldrb	r3, [sp, #22]	@ zero_extendqisi2
	tst	r3, #16
	bne	.L792
	.loc 1 3643 0
	tst	r6, #2
	beq	.L776
	.loc 1 3643 0 is_stmt 0 discriminator 1
	tst	r3, #1
	beq	.L776
	.loc 1 3644 0 is_stmt 1
	movs	r5, #7
.LVL1258:
	b	.L778
.LVL1259:
.L790:
	.loc 1 3595 0
	movs	r5, #7
.LVL1260:
.L776:
	.loc 1 3649 0
	cbnz	r5, .L778
	.loc 1 3650 0
	tst	r7, #8
	beq	.L779
	.loc 1 3650 0 is_stmt 0 discriminator 1
	orr	r7, r7, #64
.LVL1261:
.L779:
	.loc 1 3651 0 is_stmt 1
	ldr	r3, [sp, #12]
	ldr	r3, [r3, #56]
	str	r3, [r4, #72]
	.loc 1 3652 0
	ldr	r3, [sp, #76]
	str	r3, [r4, #76]
.LVL1262:
.L778:
	.loc 1 3670 0
	cmp	r5, #0
	bne	.L770
	.loc 1 3672 0
	ldr	r0, [sp, #12]
	ldrb	r3, [r0]	@ zero_extendqisi2
	cmp	r3, #4
	beq	.L803
	.loc 1 3680 0
	ldr	r6, [sp, #76]
	mov	r1, r6
	bl	ld_clust
.LVL1263:
	str	r0, [r4, #8]
	.loc 1 3681 0
	add	r0, r6, #28
	bl	ld_dword
.LVL1264:
	str	r0, [r4, #16]
	movs	r3, #0
	str	r3, [r4, #20]
.L781:
	.loc 1 3686 0
	ldr	r3, [sp, #12]
	str	r3, [r4]
	.loc 1 3687 0
	ldrh	r3, [r3, #6]
	strh	r3, [r4, #4]	@ movhi
	.loc 1 3688 0
	strb	r7, [r4, #48]
	.loc 1 3689 0
	movs	r1, #0
	strb	r1, [r4, #49]
	.loc 1 3690 0
	str	r1, [r4, #68]
	.loc 1 3691 0
	movs	r2, #0
	movs	r3, #0
	strd	r2, [r4, #56]
	.loc 1 3694 0
	add	r10, r4, #80
	mov	r2, #512
	mov	r0, r10
	bl	mem_set
.LVL1265:
	.loc 1 3696 0
	tst	r7, #32
	beq	.L770
	.loc 1 3696 0 is_stmt 0 discriminator 1
	ldrd	r6, [r4, #16]
	orrs	r3, r6, r7
	beq	.L770
	.loc 1 3697 0 is_stmt 1
	strd	r6, [r4, #56]
	.loc 1 3698 0
	ldr	r3, [sp, #12]
	ldrh	fp, [r3, #10]
	lsl	fp, fp, #9
.LVL1266:
	.loc 1 3699 0
	ldr	r1, [r4, #8]
.LVL1267:
	.loc 1 3700 0
	b	.L782
.LVL1268:
.L792:
	.loc 1 3641 0
	movs	r5, #4
.LVL1269:
	b	.L778
.L803:
	.loc 1 3673 0
	ldr	r3, [sp, #24]
	str	r3, [r4, #32]
	.loc 1 3674 0
	ldr	r3, [sp, #32]
	bic	r3, r3, #255
	ldrb	r2, [sp, #23]	@ zero_extendqisi2
	orrs	r3, r3, r2
	str	r3, [r4, #36]
	.loc 1 3675 0
	ldr	r3, [sp, #92]
	str	r3, [r4, #40]
	.loc 1 3676 0
	mov	r1, r4
	bl	init_alloc_info
.LVL1270:
	b	.L781
.LVL1271:
.L783:
	.loc 1 3703 0
	cmp	r1, #-1
	beq	.L804
.LVL1272:
.L784:
	.loc 1 3700 0 discriminator 2
	subs	r6, r6, r8
.LVL1273:
	sbc	r7, r7, r9
.LVL1274:
.L782:
	.loc 1 3700 0 is_stmt 0 discriminator 1
	cbnz	r5, .L785
	.loc 1 3700 0 discriminator 3
	mov	r8, fp
	mov	r9, #0
	cmp	r9, r7
	it	eq
	cmpeq	fp, r6
	bcs	.L785
.LVL1275:
	.loc 1 3701 0 is_stmt 1
	mov	r0, r4
	bl	get_fat
.LVL1276:
	mov	r1, r0
.LVL1277:
	.loc 1 3702 0
	cmp	r0, #1
	bhi	.L783
	movs	r5, #2
.LVL1278:
	b	.L783
.LVL1279:
.L804:
	.loc 1 3703 0
	movs	r5, #1
.LVL1280:
	b	.L784
.LVL1281:
.L785:
	.loc 1 3705 0
	str	r1, [r4, #64]
	.loc 1 3706 0
	cmp	r5, #0
	bne	.L770
	.loc 1 3706 0 is_stmt 0 discriminator 1
	movw	r2, #511
	movs	r3, #0
	and	r8, r2, r6
	and	r9, r3, r7
	orrs	r3, r8, r9
	beq	.L770
	.loc 1 3707 0 is_stmt 1
	ldr	r8, [sp, #12]
	mov	r0, r8
	bl	clst2sect
.LVL1282:
	mov	r2, r0
	cbnz	r0, .L805
	.loc 1 3708 0
	movs	r5, #2
.LVL1283:
	b	.L787
.LVL1284:
.L805:
	.loc 1 3710 0
	lsrs	r3, r6, #9
	orr	r3, r3, r7, lsl #23
	add	r2, r2, r3
	str	r2, [r4, #68]
	.loc 1 3712 0
	movs	r3, #1
	mov	r1, r10
	ldrb	r0, [r8, #1]	@ zero_extendqisi2
.LVL1285:
	bl	disk_read
.LVL1286:
	cmp	r0, #0
	beq	.L770
	movs	r5, #1
.LVL1287:
	b	.L787
.LVL1288:
.L788:
	.loc 1 3561 0
	movs	r5, #9
	b	.L769
	.cfi_endproc
.LFE59:
	.size	f_open, .-f_open
	.section	.text.f_read,"ax",%progbits
	.align	1
	.global	f_read
	.syntax unified
	.thumb
	.thumb_func
	.fpu fpv4-sp-d16
	.type	f_read, %function
f_read:
.LFB60:
	.loc 1 3741 0
	.cfi_startproc
	@ args = 0, pretend = 0, frame = 16
	@ frame_needed = 0, uses_anonymous_args = 0
.LVL1289:
	push	{r4, r5, r6, r7, r8, r9, r10, fp, lr}
	.cfi_def_cfa_offset 36
	.cfi_offset 4, -36
	.cfi_offset 5, -32
	.cfi_offset 6, -28
	.cfi_offset 7, -24
	.cfi_offset 8, -20
	.cfi_offset 9, -16
	.cfi_offset 10, -12
	.cfi_offset 11, -8
	.cfi_offset 14, -4
	sub	sp, sp, #20
	.cfi_def_cfa_offset 56
	mov	r4, r0
	mov	r7, r1
	mov	r5, r2
	mov	r6, r3
.LVL1290:
	.loc 1 3750 0
	movs	r3, #0
.LVL1291:
	str	r3, [r6]
	.loc 1 3751 0
	str	r0, [sp]
	add	r1, sp, #12
.LVL1292:
	bl	validate
.LVL1293:
	.loc 1 3752 0
	mov	r8, r0
	cmp	r0, #0
	bne	.L807
	.loc 1 3752 0 is_stmt 0 discriminator 2
	ldrb	r8, [r4, #49]	@ zero_extendqisi2
.LVL1294:
	cmp	r8, #0
	bne	.L807
	.loc 1 3753 0 is_stmt 1
	ldrb	r3, [r4, #48]	@ zero_extendqisi2
	tst	r3, #1
	beq	.L827
	.loc 1 3754 0
	ldrd	r2, [r4, #16]
	ldrd	r0, [r4, #56]
	subs	r2, r2, r0
	sbc	r3, r3, r1
	.loc 1 3755 0
	movs	r1, #0
	cmp	r3, r1
	it	eq
	cmpeq	r2, r5
	bcs	.L825
	.loc 1 3755 0 is_stmt 0 discriminator 1
	mov	r5, r2
.LVL1295:
	b	.L825
.LVL1296:
.L811:
	.loc 1 3771 0 is_stmt 1
	ldr	r1, [r4, #64]
	ldr	r0, [sp]
	bl	get_fat
.LVL1297:
	b	.L812
.L833:
	.loc 1 3774 0 discriminator 1
	mov	r8, #2
.LVL1298:
	strb	r8, [r4, #49]
	b	.L807
.LVL1299:
.L834:
	.loc 1 3775 0 discriminator 1
	mov	r8, #1
.LVL1300:
	strb	r8, [r4, #49]
	b	.L807
.LVL1301:
.L835:
	.loc 1 3779 0 discriminator 1
	mov	r8, #2
.LVL1302:
	strb	r8, [r4, #49]
	b	.L807
.LVL1303:
.L818:
	.loc 1 3793 0
	ldrsb	r3, [r4, #48]
	cmp	r3, #0
	blt	.L830
.L819:
	.loc 1 3798 0
	lsl	r9, fp, #9
.LVL1304:
	.loc 1 3799 0
	b	.L820
.LVL1305:
.L830:
	.loc 1 3793 0 discriminator 1
	ldr	r0, [r4, #68]
	sub	r0, r0, r10
	cmp	r0, fp
	bcs	.L819
	.loc 1 3794 0
	mov	r2, #512
	add	r1, r4, #80
	add	r0, r7, r0, lsl #9
	bl	mem_cpy
.LVL1306:
	b	.L819
.L816:
	.loc 1 3802 0
	ldr	r2, [r4, #68]
	cmp	r2, r10
	beq	.L821
	.loc 1 3804 0
	ldrsb	r3, [r4, #48]
	cmp	r3, #0
	blt	.L831
.L822:
	.loc 1 3809 0
	movs	r3, #1
	mov	r2, r10
	add	r1, r4, #80
	ldr	r0, [sp, #12]
	ldrb	r0, [r0, #1]	@ zero_extendqisi2
	bl	disk_read
.LVL1307:
	cmp	r0, #0
	bne	.L832
.L821:
	.loc 1 3812 0
	str	r10, [r4, #68]
.LVL1308:
.L809:
	.loc 1 3814 0
	ldr	r3, [r4, #56]
	ubfx	r3, r3, #0, #9
	rsb	r9, r3, #512
.LVL1309:
	.loc 1 3815 0
	cmp	r5, r9
	bcs	.L824
	mov	r9, r5
.LVL1310:
.L824:
	.loc 1 3820 0
	add	r1, r4, #80
	mov	r2, r9
	add	r1, r1, r3
	mov	r0, r7
	bl	mem_cpy
.LVL1311:
.L820:
	.loc 1 3758 0
	sub	r5, r5, r9
.LVL1312:
	ldr	r3, [r6]
	add	r3, r3, r9
	str	r3, [r6]
	add	r7, r7, r9
.LVL1313:
	ldrd	r2, [r4, #56]
	adds	r0, r2, r9
	adc	r1, r3, #0
	strd	r0, [r4, #56]
.LVL1314:
.L825:
	.loc 1 3757 0
	cmp	r5, #0
	beq	.L807
	.loc 1 3759 0
	ldrd	r0, [r4, #56]
	movw	r2, #511
	movs	r3, #0
	and	r9, r2, r0
	and	r10, r3, r1
	orrs	r3, r9, r10
	bne	.L809
	.loc 1 3760 0
	lsr	r9, r0, #9
	orr	r9, r9, r1, lsl #23
	ldr	r3, [sp, #12]
	ldrh	r3, [r3, #10]
	subs	r3, r3, #1
.LVL1315:
	.loc 1 3761 0
	ands	r9, r9, r3
.LVL1316:
	bne	.L810
	.loc 1 3762 0
	orrs	r3, r0, r1
	bne	.L811
	.loc 1 3763 0
	ldr	r0, [r4, #8]
.LVL1317:
.L812:
	.loc 1 3774 0
	cmp	r0, #1
	bls	.L833
	.loc 1 3775 0
	cmp	r0, #-1
	beq	.L834
	.loc 1 3776 0
	str	r0, [r4, #64]
.LVL1318:
.L810:
	.loc 1 3778 0
	ldr	r3, [sp, #12]
	str	r3, [sp, #4]
	ldr	r1, [r4, #64]
	mov	r0, r3
	bl	clst2sect
.LVL1319:
	.loc 1 3779 0
	mov	r10, r0
	cmp	r0, #0
	beq	.L835
	.loc 1 3780 0
	add	r10, r10, r9
.LVL1320:
	.loc 1 3782 0
	lsrs	fp, r5, #9
.LVL1321:
	beq	.L816
	.loc 1 3783 0
	add	r3, r9, fp
	ldr	r2, [sp, #4]
	ldrh	r2, [r2, #10]
	cmp	r3, r2
	bls	.L817
	.loc 1 3784 0
	sub	fp, r2, r9
.LVL1322:
.L817:
	.loc 1 3786 0
	mov	r3, fp
	mov	r2, r10
	mov	r1, r7
	ldr	r0, [sp, #4]
	ldrb	r0, [r0, #1]	@ zero_extendqisi2
	bl	disk_read
.LVL1323:
	cmp	r0, #0
	beq	.L818
	.loc 1 3786 0 is_stmt 0 discriminator 1
	mov	r8, #1
.LVL1324:
	strb	r8, [r4, #49]
.LVL1325:
.L807:
	.loc 1 3825 0 is_stmt 1
	mov	r0, r8
	add	sp, sp, #20
	.cfi_remember_state
	.cfi_def_cfa_offset 36
	@ sp needed
	pop	{r4, r5, r6, r7, r8, r9, r10, fp, pc}
.LVL1326:
.L831:
	.cfi_restore_state
	.loc 1 3805 0
	movs	r3, #1
	add	r1, r4, #80
	ldr	r0, [sp, #4]
	ldrb	r0, [r0, #1]	@ zero_extendqisi2
	bl	disk_write
.LVL1327:
	cbnz	r0, .L836
	.loc 1 3806 0
	ldrb	r3, [r4, #48]	@ zero_extendqisi2
	and	r3, r3, #127
	strb	r3, [r4, #48]
	b	.L822
.L836:
	.loc 1 3805 0 discriminator 1
	mov	r8, #1
.LVL1328:
	strb	r8, [r4, #49]
	b	.L807
.LVL1329:
.L832:
	.loc 1 3809 0 discriminator 1
	mov	r8, #1
.LVL1330:
	strb	r8, [r4, #49]
	b	.L807
.LVL1331:
.L827:
	.loc 1 3753 0
	mov	r8, #7
.LVL1332:
	b	.L807
	.cfi_endproc
.LFE60:
	.size	f_read, .-f_read
	.section	.text.f_write,"ax",%progbits
	.align	1
	.global	f_write
	.syntax unified
	.thumb
	.thumb_func
	.fpu fpv4-sp-d16
	.type	f_write, %function
f_write:
.LFB61:
	.loc 1 3841 0
	.cfi_startproc
	@ args = 0, pretend = 0, frame = 16
	@ frame_needed = 0, uses_anonymous_args = 0
.LVL1333:
	push	{r4, r5, r6, r7, r8, r9, r10, fp, lr}
	.cfi_def_cfa_offset 36
	.cfi_offset 4, -36
	.cfi_offset 5, -32
	.cfi_offset 6, -28
	.cfi_offset 7, -24
	.cfi_offset 8, -20
	.cfi_offset 9, -16
	.cfi_offset 10, -12
	.cfi_offset 11, -8
	.cfi_offset 14, -4
	sub	sp, sp, #20
	.cfi_def_cfa_offset 56
	mov	r4, r0
	mov	r6, r1
	mov	r5, r2
	mov	r7, r3
.LVL1334:
	.loc 1 3849 0
	movs	r3, #0
.LVL1335:
	str	r3, [r7]
	.loc 1 3850 0
	str	r0, [sp]
	add	r1, sp, #12
.LVL1336:
	bl	validate
.LVL1337:
	.loc 1 3851 0
	mov	r8, r0
	cmp	r0, #0
	bne	.L838
	.loc 1 3851 0 is_stmt 0 discriminator 2
	ldrb	r8, [r4, #49]	@ zero_extendqisi2
.LVL1338:
	cmp	r8, #0
	bne	.L838
	.loc 1 3852 0 is_stmt 1
	ldrb	r3, [r4, #48]	@ zero_extendqisi2
	tst	r3, #2
	beq	.L860
	.loc 1 3855 0
	ldr	r3, [sp, #12]
	ldrb	r3, [r3]	@ zero_extendqisi2
	cmp	r3, #4
	beq	.L858
	.loc 1 3855 0 is_stmt 0 discriminator 1
	ldr	r3, [r4, #56]
	cmn	r3, r5
	bcc	.L858
	.loc 1 3856 0 is_stmt 1
	mvns	r5, r3
.LVL1339:
	b	.L858
.LVL1340:
.L866:
	.loc 1 3867 0
	movs	r1, #0
	ldr	r0, [sp]
.LVL1341:
	bl	create_chain
.LVL1342:
	b	.L843
.LVL1343:
.L842:
	.loc 1 3876 0
	ldr	r1, [r4, #64]
	ldr	r0, [sp]
	bl	create_chain
.LVL1344:
	b	.L843
.L867:
	.loc 1 3880 0 discriminator 1
	mov	r8, #2
.LVL1345:
	strb	r8, [r4, #49]
	b	.L838
.LVL1346:
.L868:
	.loc 1 3881 0 discriminator 1
	mov	r8, #1
.LVL1347:
	strb	r8, [r4, #49]
	b	.L838
.LVL1348:
.L869:
	.loc 1 3889 0
	movs	r3, #1
	ldr	r2, [r4, #68]
	add	r1, r4, #80
	ldr	r0, [sp, #12]
	ldrb	r0, [r0, #1]	@ zero_extendqisi2
	bl	disk_write
.LVL1349:
	cbnz	r0, .L863
	.loc 1 3890 0
	ldrb	r3, [r4, #48]	@ zero_extendqisi2
	and	r3, r3, #127
	strb	r3, [r4, #48]
	b	.L847
.L863:
	.loc 1 3889 0 discriminator 1
	mov	r8, #1
.LVL1350:
	strb	r8, [r4, #49]
	b	.L838
.LVL1351:
.L870:
	.loc 1 3894 0 discriminator 1
	mov	r8, #2
.LVL1352:
	strb	r8, [r4, #49]
	b	.L838
.LVL1353:
.L852:
	.loc 1 3909 0
	ldr	r1, [r4, #68]
	sub	r1, r1, r9
	cmp	r1, r10
	bcc	.L864
.L853:
	.loc 1 3915 0
	lsl	r9, r10, #9
.LVL1354:
	.loc 1 3916 0
	b	.L854
.LVL1355:
.L864:
	.loc 1 3910 0
	mov	r2, #512
	add	r1, r6, r1, lsl #9
	add	r0, r4, #80
	bl	mem_cpy
.LVL1356:
	.loc 1 3911 0
	ldrb	r3, [r4, #48]	@ zero_extendqisi2
	and	r3, r3, #127
	strb	r3, [r4, #48]
	b	.L853
.L850:
	.loc 1 3924 0
	ldr	r3, [r4, #68]
	cmp	r3, r9
	beq	.L855
	.loc 1 3925 0 discriminator 1
	ldrd	r0, [r4, #56]
	ldrd	r2, [r4, #16]
	.loc 1 3924 0 discriminator 1
	cmp	r1, r3
	it	eq
	cmpeq	r0, r2
	bcc	.L865
.L855:
	.loc 1 3930 0
	str	r9, [r4, #68]
.LVL1357:
.L840:
	.loc 1 3932 0
	ldr	r3, [r4, #56]
	ubfx	r3, r3, #0, #9
	rsb	r9, r3, #512
.LVL1358:
	.loc 1 3933 0
	cmp	r5, r9
	bcs	.L856
	mov	r9, r5
.LVL1359:
.L856:
	.loc 1 3939 0
	add	r0, r4, #80
	mov	r2, r9
	mov	r1, r6
	add	r0, r0, r3
	bl	mem_cpy
.LVL1360:
	.loc 1 3940 0
	ldrb	r3, [r4, #48]	@ zero_extendqisi2
	orn	r3, r3, #127
	strb	r3, [r4, #48]
.L854:
	.loc 1 3860 0
	sub	r5, r5, r9
.LVL1361:
	ldr	r3, [r7]
	add	r3, r3, r9
	str	r3, [r7]
	add	r6, r6, r9
.LVL1362:
	ldrd	r2, [r4, #56]
	adds	r10, r2, r9
	adc	fp, r3, #0
	strd	r10, [r4, #56]
	ldrd	r0, [r4, #16]
	mov	lr, r10
	mov	ip, fp
	cmp	fp, r1
	it	eq
	cmpeq	r10, r0
	bcs	.L857
	mov	lr, r0
	mov	ip, r1
.L857:
	str	lr, [r4, #16]
	str	ip, [r4, #20]
.LVL1363:
.L858:
	.loc 1 3859 0
	cmp	r5, #0
	beq	.L844
	.loc 1 3861 0
	ldrd	r0, [r4, #56]
	movw	r2, #511
	movs	r3, #0
	and	r9, r2, r0
	and	r10, r3, r1
	orrs	r3, r9, r10
	bne	.L840
	.loc 1 3862 0
	lsr	fp, r0, #9
	orr	fp, fp, r1, lsl #23
	ldr	r3, [sp, #12]
	ldrh	r3, [r3, #10]
	subs	r3, r3, #1
.LVL1364:
	.loc 1 3863 0
	ands	fp, fp, r3
.LVL1365:
	bne	.L841
	.loc 1 3864 0
	orrs	r3, r0, r1
	bne	.L842
	.loc 1 3865 0
	ldr	r0, [r4, #8]
.LVL1366:
	.loc 1 3866 0
	cmp	r0, #0
	beq	.L866
.L843:
	.loc 1 3879 0
	cmp	r0, #0
	beq	.L844
	.loc 1 3880 0
	cmp	r0, #1
	beq	.L867
	.loc 1 3881 0
	cmp	r0, #-1
	beq	.L868
	.loc 1 3882 0
	str	r0, [r4, #64]
	.loc 1 3883 0
	ldr	r3, [r4, #8]
	cbnz	r3, .L841
	.loc 1 3883 0 is_stmt 0 discriminator 1
	str	r0, [r4, #8]
.LVL1367:
.L841:
	.loc 1 3888 0 is_stmt 1
	ldrsb	r3, [r4, #48]
	cmp	r3, #0
	blt	.L869
.L847:
	.loc 1 3893 0
	ldr	r3, [sp, #12]
	str	r3, [sp, #4]
	ldr	r1, [r4, #64]
	mov	r0, r3
	bl	clst2sect
.LVL1368:
	.loc 1 3894 0
	mov	r9, r0
	cmp	r0, #0
	beq	.L870
	.loc 1 3895 0
	add	r9, r9, fp
.LVL1369:
	.loc 1 3897 0
	lsrs	r10, r5, #9
.LVL1370:
	beq	.L850
	.loc 1 3898 0
	add	r3, fp, r10
	ldr	r2, [sp, #4]
	ldrh	r2, [r2, #10]
	cmp	r3, r2
	bls	.L851
	.loc 1 3899 0
	sub	r10, r2, fp
.LVL1371:
.L851:
	.loc 1 3901 0
	mov	r3, r10
	mov	r2, r9
	mov	r1, r6
	ldr	r0, [sp, #4]
	ldrb	r0, [r0, #1]	@ zero_extendqisi2
	bl	disk_write
.LVL1372:
	cmp	r0, #0
	beq	.L852
	.loc 1 3901 0 is_stmt 0 discriminator 1
	mov	r8, #1
.LVL1373:
	strb	r8, [r4, #49]
.LVL1374:
.L838:
	.loc 1 3947 0 is_stmt 1
	mov	r0, r8
	add	sp, sp, #20
	.cfi_remember_state
	.cfi_def_cfa_offset 36
	@ sp needed
	pop	{r4, r5, r6, r7, r8, r9, r10, fp, pc}
.LVL1375:
.L865:
	.cfi_restore_state
	.loc 1 3926 0
	movs	r3, #1
	mov	r2, r9
	add	r1, r4, #80
	ldr	r0, [sp, #4]
	ldrb	r0, [r0, #1]	@ zero_extendqisi2
	bl	disk_read
.LVL1376:
	.loc 1 3925 0
	cmp	r0, #0
	beq	.L855
	.loc 1 3927 0
	mov	r8, #1
.LVL1377:
	strb	r8, [r4, #49]
	b	.L838
.LVL1378:
.L844:
	.loc 1 3944 0
	ldrb	r3, [r4, #48]	@ zero_extendqisi2
	orr	r3, r3, #64
	strb	r3, [r4, #48]
	.loc 1 3946 0
	b	.L838
.LVL1379:
.L860:
	.loc 1 3852 0
	mov	r8, #7
.LVL1380:
	b	.L838
	.cfi_endproc
.LFE61:
	.size	f_write, .-f_write
	.section	.text.f_sync,"ax",%progbits
	.align	1
	.global	f_sync
	.syntax unified
	.thumb
	.thumb_func
	.fpu fpv4-sp-d16
	.type	f_sync, %function
f_sync:
.LFB62:
	.loc 1 3959 0
	.cfi_startproc
	@ args = 0, pretend = 0, frame = 96
	@ frame_needed = 0, uses_anonymous_args = 0
.LVL1381:
	push	{r4, r5, r6, lr}
	.cfi_def_cfa_offset 16
	.cfi_offset 4, -16
	.cfi_offset 5, -12
	.cfi_offset 6, -8
	.cfi_offset 14, -4
	sub	sp, sp, #96
	.cfi_def_cfa_offset 112
	mov	r4, r0
	.loc 1 3966 0
	add	r1, sp, #92
	bl	validate
.LVL1382:
	.loc 1 3967 0
	mov	r3, r0
	cbnz	r0, .L872
	.loc 1 3968 0
	ldrb	r2, [r4, #48]	@ zero_extendqisi2
	tst	r2, #64
	beq	.L872
	.loc 1 3970 0
	tst	r2, #128
	bne	.L879
.LVL1383:
.L873:
	.loc 1 3976 0
	bl	get_fattime
.LVL1384:
	mov	r6, r0
.LVL1385:
	.loc 1 3978 0
	ldr	r0, [sp, #92]
.LVL1386:
	ldrb	r3, [r0]	@ zero_extendqisi2
	cmp	r3, #4
	beq	.L880
	.loc 1 4009 0
	ldr	r1, [r4, #72]
	bl	move_window
.LVL1387:
	.loc 1 4010 0
	mov	r3, r0
	cmp	r0, #0
	beq	.L881
.LVL1388:
.L872:
	.loc 1 4026 0
	mov	r0, r3
	add	sp, sp, #96
	.cfi_remember_state
	.cfi_def_cfa_offset 16
	@ sp needed
	pop	{r4, r5, r6, pc}
.LVL1389:
.L879:
	.cfi_restore_state
	.loc 1 3971 0
	movs	r3, #1
	ldr	r2, [r4, #68]
	add	r1, r4, #80
	ldr	r0, [sp, #92]
.LVL1390:
	ldrb	r0, [r0, #1]	@ zero_extendqisi2
	bl	disk_write
.LVL1391:
	cmp	r0, #0
	bne	.L877
	.loc 1 3972 0
	ldrb	r3, [r4, #48]	@ zero_extendqisi2
	and	r3, r3, #127
	strb	r3, [r4, #48]
	b	.L873
.LVL1392:
.L880:
	.loc 1 3979 0
	mov	r0, r4
	bl	fill_first_frag
.LVL1393:
	.loc 1 3980 0
	mov	r3, r0
	cmp	r0, #0
	beq	.L882
.LVL1394:
.L875:
	.loc 1 3983 0
	cmp	r3, #0
	bne	.L872
.LBB9:
	.loc 1 3988 0
	mov	r1, r4
	mov	r0, sp
	bl	load_obj_xdir
.LVL1395:
	.loc 1 3989 0
	mov	r3, r0
	cmp	r0, #0
	bne	.L872
	.loc 1 3990 0
	ldr	r3, [sp, #92]
	ldr	r1, [r3, #16]
	ldrb	r2, [r1, #4]	@ zero_extendqisi2
	orr	r2, r2, #32
	strb	r2, [r1, #4]
	.loc 1 3991 0
	ldrb	r2, [r4, #7]	@ zero_extendqisi2
	ldr	r1, [r3, #16]
	orr	r2, r2, #1
	strb	r2, [r1, #33]
	.loc 1 3992 0
	ldr	r0, [r3, #16]
.LVL1396:
	ldr	r1, [r4, #8]
	adds	r0, r0, #52
	bl	st_dword
.LVL1397:
	.loc 1 3993 0
	ldr	r3, [sp, #92]
	ldr	r0, [r3, #16]
	ldrd	r2, [r4, #16]
	adds	r0, r0, #56
	bl	st_qword
.LVL1398:
	.loc 1 3994 0
	ldr	r3, [sp, #92]
	ldr	r0, [r3, #16]
	ldrd	r2, [r4, #16]
	adds	r0, r0, #40
	bl	st_qword
.LVL1399:
	.loc 1 3995 0
	ldr	r3, [sp, #92]
	ldr	r0, [r3, #16]
	mov	r1, r6
	adds	r0, r0, #12
	bl	st_dword
.LVL1400:
	.loc 1 3996 0
	ldr	r3, [sp, #92]
	ldr	r2, [r3, #16]
	movs	r1, #0
	strb	r1, [r2, #21]
	.loc 1 3997 0
	ldr	r0, [r3, #16]
	adds	r0, r0, #16
	bl	st_dword
.LVL1401:
	.loc 1 3998 0
	mov	r0, sp
	bl	store_xdir
.LVL1402:
	.loc 1 3999 0
	mov	r3, r0
	cmp	r0, #0
	bne	.L872
	.loc 1 4000 0
	ldr	r0, [sp, #92]
.LVL1403:
	bl	sync_fs
.LVL1404:
	mov	r3, r0
.LVL1405:
	.loc 1 4001 0
	ldrb	r2, [r4, #48]	@ zero_extendqisi2
	bic	r2, r2, #64
	strb	r2, [r4, #48]
	b	.L872
.LVL1406:
.L882:
.LBE9:
	.loc 1 3981 0
	mov	r2, #-1
	ldr	r1, [r4, #64]
	mov	r0, r4
.LVL1407:
	bl	fill_last_frag
.LVL1408:
	mov	r3, r0
.LVL1409:
	b	.L875
.LVL1410:
.L881:
	.loc 1 4011 0
	ldr	r5, [r4, #76]
.LVL1411:
	.loc 1 4012 0
	ldrb	r3, [r5, #11]	@ zero_extendqisi2
	orr	r3, r3, #32
	strb	r3, [r5, #11]
	.loc 1 4013 0
	ldr	r2, [r4, #8]
	mov	r1, r5
	ldr	r0, [r4]
.LVL1412:
	bl	st_clust
.LVL1413:
	.loc 1 4014 0
	ldr	r1, [r4, #16]
	add	r0, r5, #28
	bl	st_dword
.LVL1414:
	.loc 1 4015 0
	mov	r1, r6
	add	r0, r5, #22
	bl	st_dword
.LVL1415:
	.loc 1 4016 0
	movs	r1, #0
	add	r0, r5, #18
	bl	st_word
.LVL1416:
	.loc 1 4017 0
	ldr	r3, [sp, #92]
	movs	r2, #1
	strb	r2, [r3, #3]
	.loc 1 4018 0
	ldr	r0, [sp, #92]
	bl	sync_fs
.LVL1417:
	mov	r3, r0
.LVL1418:
	.loc 1 4019 0
	ldrb	r2, [r4, #48]	@ zero_extendqisi2
	bic	r2, r2, #64
	strb	r2, [r4, #48]
	b	.L872
.LVL1419:
.L877:
	.loc 1 3971 0
	movs	r3, #1
	b	.L872
	.cfi_endproc
.LFE62:
	.size	f_sync, .-f_sync
	.section	.text.f_close,"ax",%progbits
	.align	1
	.global	f_close
	.syntax unified
	.thumb
	.thumb_func
	.fpu fpv4-sp-d16
	.type	f_close, %function
f_close:
.LFB63:
	.loc 1 4040 0
	.cfi_startproc
	@ args = 0, pretend = 0, frame = 8
	@ frame_needed = 0, uses_anonymous_args = 0
.LVL1420:
	push	{r4, lr}
	.cfi_def_cfa_offset 8
	.cfi_offset 4, -8
	.cfi_offset 14, -4
	sub	sp, sp, #8
	.cfi_def_cfa_offset 16
	mov	r4, r0
	.loc 1 4045 0
	bl	f_sync
.LVL1421:
	.loc 1 4046 0
	mov	r3, r0
	cbz	r0, .L886
.L884:
.LVL1422:
	.loc 1 4063 0
	mov	r0, r3
	add	sp, sp, #8
	.cfi_remember_state
	.cfi_def_cfa_offset 8
	@ sp needed
	pop	{r4, pc}
.LVL1423:
.L886:
	.cfi_restore_state
	.loc 1 4049 0
	add	r1, sp, #4
	mov	r0, r4
.LVL1424:
	bl	validate
.LVL1425:
	.loc 1 4050 0
	mov	r3, r0
	cmp	r0, #0
	bne	.L884
	.loc 1 4055 0
	movs	r2, #0
	str	r2, [r4]
	b	.L884
	.cfi_endproc
.LFE63:
	.size	f_close, .-f_close
	.global	__aeabi_uldivmod
	.section	.text.f_lseek,"ax",%progbits
	.align	1
	.global	f_lseek
	.syntax unified
	.thumb
	.thumb_func
	.fpu fpv4-sp-d16
	.type	f_lseek, %function
f_lseek:
.LFB64:
	.loc 1 4256 0
	.cfi_startproc
	@ args = 0, pretend = 0, frame = 16
	@ frame_needed = 0, uses_anonymous_args = 0
.LVL1426:
	push	{r4, r5, r6, r7, r8, r9, r10, fp, lr}
	.cfi_def_cfa_offset 36
	.cfi_offset 4, -36
	.cfi_offset 5, -32
	.cfi_offset 6, -28
	.cfi_offset 7, -24
	.cfi_offset 8, -20
	.cfi_offset 9, -16
	.cfi_offset 10, -12
	.cfi_offset 11, -8
	.cfi_offset 14, -4
	sub	sp, sp, #20
	.cfi_def_cfa_offset 56
	mov	r4, r0
	mov	r6, r2
	mov	r7, r3
	.loc 1 4265 0
	mov	fp, r0
	add	r1, sp, #12
	bl	validate
.LVL1427:
	.loc 1 4266 0
	mov	r5, r0
	cbnz	r0, .L888
	.loc 1 4266 0 is_stmt 0 discriminator 1
	ldrb	r5, [r4, #49]	@ zero_extendqisi2
.LVL1428:
.L888:
	.loc 1 4268 0 is_stmt 1
	cbnz	r5, .L889
	.loc 1 4268 0 is_stmt 0 discriminator 1
	ldr	r3, [sp, #12]
	ldrb	r3, [r3]	@ zero_extendqisi2
	cmp	r3, #4
	beq	.L921
.L889:
	.loc 1 4272 0 is_stmt 1
	cmp	r5, #0
	bne	.L890
	.loc 1 4329 0
	ldr	r3, [sp, #12]
	ldrb	r2, [r3]	@ zero_extendqisi2
	cmp	r2, #4
	beq	.L891
	.loc 1 4329 0 is_stmt 0 discriminator 1
	cmp	r7, #1
	it	eq
	cmpeq	r6, #0
	bcc	.L891
	.loc 1 4329 0
	mov	r6, #-1
	movs	r7, #0
.L891:
.LVL1429:
	.loc 1 4331 0 is_stmt 1
	ldrd	r0, [r4, #16]
	cmp	r1, r7
	it	eq
	cmpeq	r0, r6
	bcs	.L892
	.loc 1 4331 0 is_stmt 0 discriminator 1
	ldrb	r2, [r4, #48]	@ zero_extendqisi2
	tst	r2, #2
	bne	.L892
	.loc 1 4332 0 is_stmt 1
	mov	r6, r0
.LVL1430:
	mov	r7, r1
.L892:
.LVL1431:
	.loc 1 4334 0
	ldrd	r8, [r4, #56]
.LVL1432:
	.loc 1 4335 0
	movs	r0, #0
	movs	r1, #0
	strd	r0, [r4, #56]
	.loc 1 4336 0
	orrs	r2, r6, r7
	beq	.L915
	.loc 1 4337 0
	ldrh	r10, [r3, #10]
	lsl	r10, r10, #9
.LVL1433:
	.loc 1 4338 0
	orrs	r3, r8, r9
	beq	.L894
	.loc 1 4339 0 discriminator 1
	mov	r2, r10
	movs	r3, #0
	adds	r0, r6, #-1
	adc	r1, r7, #-1
	bl	__aeabi_uldivmod
.LVL1434:
	strd	r0, [sp]
	adds	r2, r8, #-1
	adc	r3, r9, #-1
	mov	r8, r2
.LVL1435:
	mov	r9, r3
	mov	r2, r10
	movs	r3, #0
	mov	r0, r8
	mov	r1, r9
	bl	__aeabi_uldivmod
.LVL1436:
	.loc 1 4338 0 discriminator 1
	ldrd	r2, [sp]
	cmp	r3, r1
	it	eq
	cmpeq	r2, r0
	bcc	.L894
	.loc 1 4340 0
	add	r3, r10, #-1
	bic	r8, r8, r3
	strd	r8, [r4, #56]
	.loc 1 4341 0
	subs	r6, r6, r8
.LVL1437:
	sbc	r7, r7, r9
.LVL1438:
	.loc 1 4342 0
	ldr	r8, [r4, #64]
.LVL1439:
	b	.L895
.LVL1440:
.L921:
	.loc 1 4269 0
	mov	r2, #-1
	ldr	r1, [r4, #64]
	mov	r0, r4
	bl	fill_last_frag
.LVL1441:
	mov	r5, r0
.LVL1442:
	b	.L889
.LVL1443:
.L894:
	.loc 1 4344 0
	ldr	r8, [r4, #8]
.LVL1444:
	.loc 1 4346 0
	cmp	r8, #0
	beq	.L922
.L896:
	.loc 1 4353 0
	str	r8, [r4, #64]
.L895:
	.loc 1 4355 0
	cmp	r8, #0
	beq	.L893
	mov	r3, r5
	mov	r5, r8
.LVL1445:
	str	r3, [sp]
	b	.L899
.LVL1446:
.L922:
	.loc 1 4347 0
	movs	r1, #0
	mov	r0, r4
	bl	create_chain
.LVL1447:
	mov	r8, r0
.LVL1448:
	.loc 1 4348 0
	cmp	r0, #1
	beq	.L923
	.loc 1 4349 0
	cmp	r0, #-1
	beq	.L924
	.loc 1 4350 0
	str	r0, [r4, #8]
	b	.L896
.L923:
	.loc 1 4348 0 discriminator 1
	movs	r5, #2
.LVL1449:
	strb	r5, [r4, #49]
	b	.L890
.LVL1450:
.L924:
	.loc 1 4349 0 discriminator 1
	movs	r5, #1
.LVL1451:
	strb	r5, [r4, #49]
	b	.L890
.LVL1452:
.L901:
	.loc 1 4364 0
	mov	r1, r5
	mov	r0, fp
	bl	create_chain
.LVL1453:
	.loc 1 4365 0
	mov	r5, r0
	cmp	r0, #0
	beq	.L925
.L903:
	.loc 1 4373 0
	cmp	r5, #-1
	beq	.L926
	.loc 1 4374 0
	cmp	r5, #1
	bls	.L905
	.loc 1 4374 0 is_stmt 0 discriminator 2
	ldr	r3, [sp, #12]
	ldr	r3, [r3, #28]
	cmp	r3, r5
	bls	.L905
	.loc 1 4375 0 is_stmt 1
	str	r5, [r4, #64]
.LVL1454:
.L899:
	.loc 1 4356 0
	mov	r8, r10
	mov	r9, #0
	cmp	r9, r7
	it	eq
	cmpeq	r10, r6
	bcs	.L927
.LVL1455:
	.loc 1 4357 0
	subs	r6, r6, r8
.LVL1456:
	sbc	r7, r7, r9
.LVL1457:
	ldrd	r0, [r4, #56]
	adds	r2, r8, r0
	adc	r3, r9, r1
	strd	r2, [r4, #56]
	.loc 1 4359 0
	ldrb	r1, [r4, #48]	@ zero_extendqisi2
	tst	r1, #2
	beq	.L900
	.loc 1 4360 0
	ldrd	r8, [r4, #16]
.LVL1458:
	cmp	r9, r3
	it	eq
	cmpeq	r8, r2
	bcs	.L901
	.loc 1 4361 0
	strd	r2, [r4, #16]
	.loc 1 4362 0
	orr	r1, r1, #64
	strb	r1, [r4, #48]
	b	.L901
.LVL1459:
.L900:
	.loc 1 4371 0
	mov	r1, r5
	mov	r0, fp
	bl	get_fat
.LVL1460:
	mov	r5, r0
.LVL1461:
	b	.L903
.LVL1462:
.L926:
	.loc 1 4373 0 discriminator 1
	movs	r5, #1
	strb	r5, [r4, #49]
	b	.L890
.L905:
	.loc 1 4374 0 discriminator 3
	movs	r5, #2
	strb	r5, [r4, #49]
	b	.L890
.LVL1463:
.L927:
	ldr	r3, [sp]
	mov	r8, r5
.LVL1464:
	mov	r5, r3
.LVL1465:
.L902:
	.loc 1 4377 0
	ldrd	r2, [r4, #56]
	adds	r0, r2, r6
	adc	r1, r3, r7
	strd	r0, [r4, #56]
	.loc 1 4378 0
	movw	r2, #511
	movs	r3, #0
	and	r0, r2, r6
	and	r1, r3, r7
	orrs	r3, r0, r1
	beq	.L917
	.loc 1 4379 0
	mov	r1, r8
	ldr	r0, [sp, #12]
	bl	clst2sect
.LVL1466:
	.loc 1 4380 0
	cbz	r0, .L928
	.loc 1 4381 0
	lsr	r8, r6, #9
.LVL1467:
	orr	r8, r8, r7, lsl #23
	add	r8, r8, r0
.LVL1468:
	b	.L893
.LVL1469:
.L925:
	ldr	r3, [sp]
	mov	r8, r0
	mov	r5, r3
	.loc 1 4366 0
	movs	r6, #0
.LVL1470:
	movs	r7, #0
	b	.L902
.LVL1471:
.L928:
	.loc 1 4380 0 discriminator 1
	movs	r5, #2
	strb	r5, [r4, #49]
	b	.L890
.LVL1472:
.L915:
	.loc 1 4335 0
	mov	r8, #0
.LVL1473:
.L893:
	.loc 1 4385 0
	ldrd	r6, [r4, #56]
.LVL1474:
	ldrd	r2, [r4, #16]
	cmp	r3, r7
	it	eq
	cmpeq	r2, r6
	bcs	.L909
	.loc 1 4386 0
	strd	r6, [r4, #16]
	.loc 1 4387 0
	ldrb	r3, [r4, #48]	@ zero_extendqisi2
	orr	r3, r3, #64
	strb	r3, [r4, #48]
.L909:
	.loc 1 4389 0
	movw	r2, #511
	movs	r3, #0
	and	r0, r6, r2
	and	r1, r7, r3
	orrs	r3, r0, r1
	beq	.L890
	.loc 1 4389 0 is_stmt 0 discriminator 1
	ldr	r2, [r4, #68]
	cmp	r2, r8
	beq	.L890
	.loc 1 4392 0 is_stmt 1
	ldrsb	r3, [r4, #48]
	cmp	r3, #0
	blt	.L929
.L910:
	.loc 1 4397 0
	movs	r3, #1
	mov	r2, r8
	add	r1, r4, #80
	ldr	r0, [sp, #12]
	ldrb	r0, [r0, #1]	@ zero_extendqisi2
	bl	disk_read
.LVL1475:
	cbnz	r0, .L930
	.loc 1 4399 0
	str	r8, [r4, #68]
.LVL1476:
.L890:
	.loc 1 4404 0
	mov	r0, r5
	add	sp, sp, #20
	.cfi_remember_state
	.cfi_def_cfa_offset 36
	@ sp needed
	pop	{r4, r5, r6, r7, r8, r9, r10, fp, pc}
.LVL1477:
.L917:
	.cfi_restore_state
	.loc 1 4335 0
	mov	r8, #0
.LVL1478:
	b	.L893
.LVL1479:
.L929:
	.loc 1 4393 0
	movs	r3, #1
	add	r1, r4, #80
	ldr	r0, [sp, #12]
	ldrb	r0, [r0, #1]	@ zero_extendqisi2
	bl	disk_write
.LVL1480:
	cbnz	r0, .L931
	.loc 1 4394 0
	ldrb	r3, [r4, #48]	@ zero_extendqisi2
	and	r3, r3, #127
	strb	r3, [r4, #48]
	b	.L910
.L931:
	.loc 1 4393 0 discriminator 1
	movs	r5, #1
	strb	r5, [r4, #49]
	b	.L890
.L930:
	.loc 1 4397 0 discriminator 1
	movs	r5, #1
	strb	r5, [r4, #49]
	b	.L890
	.cfi_endproc
.LFE64:
	.size	f_lseek, .-f_lseek
	.section	.text.f_opendir,"ax",%progbits
	.align	1
	.global	f_opendir
	.syntax unified
	.thumb
	.thumb_func
	.fpu fpv4-sp-d16
	.type	f_opendir, %function
f_opendir:
.LFB65:
	.loc 1 4417 0
	.cfi_startproc
	@ args = 0, pretend = 0, frame = 16
	@ frame_needed = 0, uses_anonymous_args = 0
.LVL1481:
	push	{r4, lr}
	.cfi_def_cfa_offset 8
	.cfi_offset 4, -8
	.cfi_offset 14, -4
	sub	sp, sp, #16
	.cfi_def_cfa_offset 24
	str	r1, [sp, #4]
	.loc 1 4423 0
	cmp	r0, #0
	beq	.L939
	mov	r4, r0
	.loc 1 4426 0
	movs	r2, #0
	add	r1, sp, #12
.LVL1482:
	add	r0, sp, #4
.LVL1483:
	bl	find_volume
.LVL1484:
	.loc 1 4427 0
	mov	r3, r0
	cbz	r0, .L943
.L934:
	.loc 1 4467 0
	cbz	r3, .L933
.L938:
	.loc 1 4467 0 is_stmt 0 discriminator 1
	movs	r2, #0
	str	r2, [r4]
.LVL1485:
.L933:
	.loc 1 4470 0 is_stmt 1
	mov	r0, r3
	add	sp, sp, #16
	.cfi_remember_state
	.cfi_def_cfa_offset 8
	@ sp needed
	pop	{r4, pc}
.LVL1486:
.L943:
	.cfi_restore_state
	.loc 1 4428 0
	ldr	r3, [sp, #12]
	str	r3, [r4]
	.loc 1 4430 0
	ldr	r1, [sp, #4]
	mov	r0, r4
	bl	follow_path
.LVL1487:
	.loc 1 4431 0
	mov	r3, r0
	cbnz	r0, .L935
	.loc 1 4432 0
	ldrsb	r3, [r4, #75]
	cmp	r3, #0
	blt	.L936
	.loc 1 4433 0
	ldrb	r3, [r4, #6]	@ zero_extendqisi2
	tst	r3, #16
	beq	.L940
	.loc 1 4435 0
	ldr	r0, [sp, #12]
	ldrb	r3, [r0]	@ zero_extendqisi2
	cmp	r3, #4
	beq	.L944
	.loc 1 4443 0
	ldr	r1, [r4, #60]
	bl	ld_clust
.LVL1488:
	str	r0, [r4, #8]
.L936:
	.loc 1 4450 0
	ldr	r3, [sp, #12]
	ldrh	r3, [r3, #6]
	strh	r3, [r4, #4]	@ movhi
	.loc 1 4451 0
	movs	r1, #0
	mov	r0, r4
	bl	dir_sdi
.LVL1489:
	mov	r3, r0
.L935:
	.loc 1 4465 0
	cmp	r3, #4
	bne	.L934
.LVL1490:
	movs	r3, #5
	b	.L938
.LVL1491:
.L944:
	.loc 1 4436 0
	ldr	r3, [r4, #8]
	str	r3, [r4, #32]
	.loc 1 4437 0
	ldr	r3, [r4, #16]
	bic	r3, r3, #255
	ldrb	r2, [r4, #7]	@ zero_extendqisi2
	orrs	r3, r3, r2
	str	r3, [r4, #36]
	.loc 1 4438 0
	ldr	r3, [r4, #76]
	str	r3, [r4, #40]
	.loc 1 4439 0
	mov	r1, r4
	bl	init_alloc_info
.LVL1492:
	b	.L936
.L940:
.LVL1493:
	.loc 1 4446 0
	movs	r3, #5
	b	.L935
.LVL1494:
.L939:
	.loc 1 4423 0
	movs	r3, #9
	b	.L933
	.cfi_endproc
.LFE65:
	.size	f_opendir, .-f_opendir
	.section	.text.f_closedir,"ax",%progbits
	.align	1
	.global	f_closedir
	.syntax unified
	.thumb
	.thumb_func
	.fpu fpv4-sp-d16
	.type	f_closedir, %function
f_closedir:
.LFB66:
	.loc 1 4482 0
	.cfi_startproc
	@ args = 0, pretend = 0, frame = 8
	@ frame_needed = 0, uses_anonymous_args = 0
.LVL1495:
	push	{r4, lr}
	.cfi_def_cfa_offset 8
	.cfi_offset 4, -8
	.cfi_offset 14, -4
	sub	sp, sp, #8
	.cfi_def_cfa_offset 16
	mov	r4, r0
	.loc 1 4487 0
	add	r1, sp, #4
	bl	validate
.LVL1496:
	.loc 1 4488 0
	mov	r3, r0
	cbnz	r0, .L946
	.loc 1 4493 0
	movs	r2, #0
	str	r2, [r4]
.L946:
	.loc 1 4500 0
	mov	r0, r3
.LVL1497:
	add	sp, sp, #8
	.cfi_def_cfa_offset 8
	@ sp needed
	pop	{r4, pc}
	.cfi_endproc
.LFE66:
	.size	f_closedir, .-f_closedir
	.section	.text.f_readdir,"ax",%progbits
	.align	1
	.global	f_readdir
	.syntax unified
	.thumb
	.thumb_func
	.fpu fpv4-sp-d16
	.type	f_readdir, %function
f_readdir:
.LFB67:
	.loc 1 4513 0
	.cfi_startproc
	@ args = 0, pretend = 0, frame = 8
	@ frame_needed = 0, uses_anonymous_args = 0
.LVL1498:
	push	{r4, r5, r6, lr}
	.cfi_def_cfa_offset 16
	.cfi_offset 4, -16
	.cfi_offset 5, -12
	.cfi_offset 6, -8
	.cfi_offset 14, -4
	sub	sp, sp, #8
	.cfi_def_cfa_offset 24
	mov	r5, r0
	mov	r6, r1
	.loc 1 4519 0
	add	r1, sp, #4
.LVL1499:
	bl	validate
.LVL1500:
	.loc 1 4520 0
	mov	r4, r0
	cbnz	r0, .L949
	.loc 1 4521 0
	cbz	r6, .L954
	.loc 1 4525 0
	movs	r1, #0
	mov	r0, r5
.LVL1501:
	bl	dir_read
.LVL1502:
	.loc 1 4526 0
	cmp	r0, #4
	beq	.L951
	.loc 1 4527 0
	cbnz	r0, .L952
.L951:
	.loc 1 4528 0
	mov	r1, r6
	mov	r0, r5
.LVL1503:
	bl	get_fileinfo
.LVL1504:
	.loc 1 4529 0
	movs	r1, #0
	mov	r0, r5
	bl	dir_next
.LVL1505:
	.loc 1 4530 0
	cmp	r0, #4
	beq	.L949
	.loc 1 4529 0
	mov	r4, r0
.LVL1506:
.L949:
	.loc 1 4536 0
	mov	r0, r4
	add	sp, sp, #8
	.cfi_remember_state
	.cfi_def_cfa_offset 16
	@ sp needed
	pop	{r4, r5, r6, pc}
.LVL1507:
.L954:
	.cfi_restore_state
	.loc 1 4522 0
	movs	r1, #0
	mov	r0, r5
.LVL1508:
	bl	dir_sdi
.LVL1509:
	mov	r4, r0
.LVL1510:
	b	.L949
.LVL1511:
.L952:
	.loc 1 4525 0
	mov	r4, r0
	b	.L949
	.cfi_endproc
.LFE67:
	.size	f_readdir, .-f_readdir
	.section	.text.f_findnext,"ax",%progbits
	.align	1
	.global	f_findnext
	.syntax unified
	.thumb
	.thumb_func
	.fpu fpv4-sp-d16
	.type	f_findnext, %function
f_findnext:
.LFB68:
	.loc 1 4549 0
	.cfi_startproc
	@ args = 0, pretend = 0, frame = 0
	@ frame_needed = 0, uses_anonymous_args = 0
.LVL1512:
	push	{r4, r5, r6, lr}
	.cfi_def_cfa_offset 16
	.cfi_offset 4, -16
	.cfi_offset 5, -12
	.cfi_offset 6, -8
	.cfi_offset 14, -4
	mov	r5, r0
	mov	r4, r1
.LVL1513:
.L957:
	.loc 1 4554 0
	mov	r1, r4
	mov	r0, r5
	bl	f_readdir
.LVL1514:
	.loc 1 4555 0
	mov	r6, r0
	cbnz	r0, .L956
	.loc 1 4555 0 is_stmt 0 discriminator 1
	cbz	r4, .L956
	.loc 1 4555 0 discriminator 2
	ldrb	r3, [r4, #26]	@ zero_extendqisi2
	cbz	r3, .L956
	.loc 1 4556 0 is_stmt 1
	movs	r3, #0
	mov	r2, r3
	add	r1, r4, #26
	ldr	r0, [r5, #80]
.LVL1515:
	bl	pattern_matching
.LVL1516:
	cmp	r0, #0
	beq	.L957
.L956:
	.loc 1 4562 0
	mov	r0, r6
	pop	{r4, r5, r6, pc}
	.cfi_endproc
.LFE68:
	.size	f_findnext, .-f_findnext
	.section	.text.f_findfirst,"ax",%progbits
	.align	1
	.global	f_findfirst
	.syntax unified
	.thumb
	.thumb_func
	.fpu fpv4-sp-d16
	.type	f_findfirst, %function
f_findfirst:
.LFB69:
	.loc 1 4576 0
	.cfi_startproc
	@ args = 0, pretend = 0, frame = 0
	@ frame_needed = 0, uses_anonymous_args = 0
.LVL1517:
	push	{r3, r4, r5, lr}
	.cfi_def_cfa_offset 16
	.cfi_offset 3, -16
	.cfi_offset 4, -12
	.cfi_offset 5, -8
	.cfi_offset 14, -4
	mov	r4, r0
	mov	r5, r1
	.loc 1 4580 0
	str	r3, [r0, #80]
	.loc 1 4581 0
	mov	r1, r2
.LVL1518:
	bl	f_opendir
.LVL1519:
	.loc 1 4582 0
	mov	r3, r0
	cbz	r0, .L962
.LVL1520:
.L960:
	.loc 1 4586 0
	mov	r0, r3
	pop	{r3, r4, r5, pc}
.LVL1521:
.L962:
	.loc 1 4583 0
	mov	r1, r5
	mov	r0, r4
.LVL1522:
	bl	f_findnext
.LVL1523:
	mov	r3, r0
.LVL1524:
	b	.L960
	.cfi_endproc
.LFE69:
	.size	f_findfirst, .-f_findfirst
	.section	.text.f_stat,"ax",%progbits
	.align	1
	.global	f_stat
	.syntax unified
	.thumb
	.thumb_func
	.fpu fpv4-sp-d16
	.type	f_stat, %function
f_stat:
.LFB70:
	.loc 1 4601 0
	.cfi_startproc
	@ args = 0, pretend = 0, frame = 96
	@ frame_needed = 0, uses_anonymous_args = 0
.LVL1525:
	push	{r4, r5, lr}
	.cfi_def_cfa_offset 12
	.cfi_offset 4, -12
	.cfi_offset 5, -8
	.cfi_offset 14, -4
	sub	sp, sp, #100
	.cfi_def_cfa_offset 112
	str	r0, [sp, #4]
	mov	r5, r1
	.loc 1 4608 0
	movs	r2, #0
	add	r1, sp, #8
.LVL1526:
	add	r0, sp, #4
.LVL1527:
	bl	find_volume
.LVL1528:
	.loc 1 4609 0
	mov	r4, r0
	cbz	r0, .L967
.LVL1529:
.L964:
	.loc 1 4623 0
	mov	r0, r4
	add	sp, sp, #100
	.cfi_remember_state
	.cfi_def_cfa_offset 12
	@ sp needed
	pop	{r4, r5, pc}
.LVL1530:
.L967:
	.cfi_restore_state
	.loc 1 4611 0
	ldr	r1, [sp, #4]
	add	r0, sp, #8
.LVL1531:
	bl	follow_path
.LVL1532:
	.loc 1 4612 0
	mov	r4, r0
	cmp	r0, #0
	bne	.L964
	.loc 1 4613 0
	ldrsb	r3, [sp, #83]
	cmp	r3, #0
	blt	.L965
	.loc 1 4616 0
	cmp	r5, #0
	beq	.L964
	.loc 1 4616 0 is_stmt 0 discriminator 1
	mov	r1, r5
	add	r0, sp, #8
.LVL1533:
	bl	get_fileinfo
.LVL1534:
	b	.L964
.LVL1535:
.L965:
	.loc 1 4614 0 is_stmt 1
	movs	r4, #6
	b	.L964
	.cfi_endproc
.LFE70:
	.size	f_stat, .-f_stat
	.section	.text.f_getfree,"ax",%progbits
	.align	1
	.global	f_getfree
	.syntax unified
	.thumb
	.thumb_func
	.fpu fpv4-sp-d16
	.type	f_getfree, %function
f_getfree:
.LFB71:
	.loc 1 4637 0
	.cfi_startproc
	@ args = 0, pretend = 0, frame = 64
	@ frame_needed = 0, uses_anonymous_args = 0
.LVL1536:
	push	{r4, r5, r6, r7, r8, r9, r10, lr}
	.cfi_def_cfa_offset 32
	.cfi_offset 4, -32
	.cfi_offset 5, -28
	.cfi_offset 6, -24
	.cfi_offset 7, -20
	.cfi_offset 8, -16
	.cfi_offset 9, -12
	.cfi_offset 10, -8
	.cfi_offset 14, -4
	sub	sp, sp, #64
	.cfi_def_cfa_offset 96
	str	r0, [sp, #4]
	mov	r7, r1
	mov	r4, r2
	.loc 1 4646 0
	movs	r2, #0
.LVL1537:
	add	r1, sp, #60
.LVL1538:
	add	r0, sp, #4
.LVL1539:
	bl	find_volume
.LVL1540:
	.loc 1 4647 0
	mov	r6, r0
	cmp	r0, #0
	bne	.L969
	.loc 1 4648 0
	ldr	r3, [sp, #60]
	str	r3, [r4]
	.loc 1 4650 0
	ldr	r2, [r3, #24]
	ldr	r8, [r3, #28]
	sub	r4, r8, #2
.LVL1541:
	cmp	r2, r4
	bls	.L991
.LVL1542:
	.loc 1 4655 0
	ldrb	r2, [r3]	@ zero_extendqisi2
	cmp	r2, #1
	beq	.L992
	.loc 1 4665 0
	cmp	r2, #4
	beq	.L993
.LVL1543:
	.loc 1 4687 0
	ldr	r9, [r3, #40]
.LVL1544:
	.loc 1 4688 0
	movs	r4, #0
	.loc 1 4654 0
	mov	r5, r4
	b	.L987
.LVL1545:
.L991:
	.loc 1 4651 0
	str	r2, [r7]
	b	.L969
.LVL1546:
.L992:
	.loc 1 4656 0
	str	r3, [sp, #8]
	movs	r4, #2
	.loc 1 4654 0
	movs	r5, #0
	b	.L974
.LVL1547:
.L973:
	.loc 1 4662 0
	adds	r4, r4, #1
.LVL1548:
	ldr	r3, [sp, #60]
	ldr	r3, [r3, #28]
	cmp	r3, r4
	bls	.L972
.LVL1549:
.L974:
	.loc 1 4658 0
	mov	r1, r4
	add	r0, sp, #8
	bl	get_fat
.LVL1550:
	.loc 1 4659 0
	cmp	r0, #-1
	beq	.L988
	.loc 1 4660 0
	cmp	r0, #1
	beq	.L989
	.loc 1 4661 0
	cmp	r0, #0
	bne	.L973
	.loc 1 4661 0 is_stmt 0 discriminator 1
	adds	r5, r5, #1
.LVL1551:
	b	.L973
.LVL1552:
.L993:
.LBB10:
	.loc 1 4670 0 is_stmt 1
	ldr	r1, [r3, #52]
.LVL1553:
	.loc 1 4671 0
	mov	r8, #0
.LBE10:
	.loc 1 4654 0
	mov	r5, r8
	b	.L981
.LVL1554:
.L994:
.LBB11:
	.loc 1 4674 0
	add	r9, r1, #1
.LVL1555:
	ldr	r0, [sp, #60]
	bl	move_window
.LVL1556:
	.loc 1 4675 0
	mov	r6, r0
	cmp	r0, #0
	bne	.L972
	.loc 1 4674 0
	mov	r1, r9
	b	.L976
.LVL1557:
.L978:
	.loc 1 4679 0 discriminator 2
	lsrs	r2, r2, #1
.LVL1558:
	.loc 1 4677 0 discriminator 2
	subs	r3, r3, #1
.LVL1559:
	subs	r4, r4, #1
.LVL1560:
.L977:
	.loc 1 4677 0 is_stmt 0 discriminator 1
	cbz	r3, .L979
	.loc 1 4677 0 discriminator 3
	cbz	r4, .L979
	.loc 1 4678 0 is_stmt 1
	tst	r2, #1
	bne	.L978
	.loc 1 4678 0 is_stmt 0 discriminator 1
	adds	r5, r5, #1
.LVL1561:
	b	.L978
.L979:
	.loc 1 4681 0 is_stmt 1
	add	r8, r8, #1
.LVL1562:
	ubfx	r8, r8, #0, #9
.LVL1563:
	.loc 1 4682 0
	cbz	r4, .L972
.LVL1564:
.L981:
	.loc 1 4673 0
	cmp	r8, #0
	beq	.L994
.LVL1565:
.L976:
	.loc 1 4677 0
	ldr	r3, [sp, #60]
	add	r3, r3, r8
	ldrb	r2, [r3, #60]	@ zero_extendqisi2
.LVL1566:
	movs	r3, #8
	b	.L977
.LVL1567:
.L995:
.LBE11:
	.loc 1 4691 0
	add	r10, r9, #1
.LVL1568:
	mov	r1, r9
	ldr	r0, [sp, #60]
	bl	move_window
.LVL1569:
	.loc 1 4692 0
	mov	r6, r0
	cbnz	r0, .L972
	.loc 1 4691 0
	mov	r9, r10
	b	.L982
.LVL1570:
.L996:
	.loc 1 4695 0
	adds	r0, r0, #60
	add	r0, r0, r4
	bl	ld_word
.LVL1571:
	cbnz	r0, .L984
	.loc 1 4695 0 is_stmt 0 discriminator 1
	adds	r5, r5, #1
.LVL1572:
.L984:
	.loc 1 4696 0 is_stmt 1
	adds	r4, r4, #2
.LVL1573:
	b	.L985
.L986:
	.loc 1 4699 0
	adds	r4, r4, #4
.LVL1574:
.L985:
	.loc 1 4701 0
	ubfx	r4, r4, #0, #9
.LVL1575:
	.loc 1 4702 0
	subs	r8, r8, #1
.LVL1576:
	beq	.L972
.LVL1577:
.L987:
	.loc 1 4690 0
	cmp	r4, #0
	beq	.L995
.LVL1578:
.L982:
	.loc 1 4694 0
	ldr	r0, [sp, #60]
	ldrb	r3, [r0]	@ zero_extendqisi2
	cmp	r3, #2
	beq	.L996
	.loc 1 4698 0
	adds	r0, r0, #60
	add	r0, r0, r4
	bl	ld_dword
.LVL1579:
	bics	r3, r0, #-268435456
	bne	.L986
	.loc 1 4698 0 is_stmt 0 discriminator 1
	adds	r5, r5, #1
.LVL1580:
	b	.L986
.LVL1581:
.L988:
	.loc 1 4659 0 is_stmt 1
	movs	r6, #1
.LVL1582:
.L972:
	.loc 1 4705 0
	str	r5, [r7]
	.loc 1 4706 0
	ldr	r3, [sp, #60]
	str	r5, [r3, #24]
	.loc 1 4707 0
	ldrb	r2, [r3, #4]	@ zero_extendqisi2
	orr	r2, r2, #1
	strb	r2, [r3, #4]
.LVL1583:
.L969:
	.loc 1 4712 0
	mov	r0, r6
	add	sp, sp, #64
	.cfi_remember_state
	.cfi_def_cfa_offset 32
	@ sp needed
	pop	{r4, r5, r6, r7, r8, r9, r10, pc}
.LVL1584:
.L989:
	.cfi_restore_state
	.loc 1 4660 0
	movs	r6, #2
	b	.L972
	.cfi_endproc
.LFE71:
	.size	f_getfree, .-f_getfree
	.section	.text.f_truncate,"ax",%progbits
	.align	1
	.global	f_truncate
	.syntax unified
	.thumb
	.thumb_func
	.fpu fpv4-sp-d16
	.type	f_truncate, %function
f_truncate:
.LFB72:
	.loc 1 4724 0
	.cfi_startproc
	@ args = 0, pretend = 0, frame = 8
	@ frame_needed = 0, uses_anonymous_args = 0
.LVL1585:
	push	{r4, r5, lr}
	.cfi_def_cfa_offset 12
	.cfi_offset 4, -12
	.cfi_offset 5, -8
	.cfi_offset 14, -4
	sub	sp, sp, #12
	.cfi_def_cfa_offset 24
	mov	r5, r0
	.loc 1 4730 0
	add	r1, sp, #4
	bl	validate
.LVL1586:
	.loc 1 4731 0
	mov	r4, r0
	cmp	r0, #0
	bne	.L998
	.loc 1 4731 0 is_stmt 0 discriminator 2
	ldrb	r4, [r5, #49]	@ zero_extendqisi2
.LVL1587:
	cmp	r4, #0
	bne	.L998
	.loc 1 4732 0 is_stmt 1
	ldrb	r3, [r5, #48]	@ zero_extendqisi2
	tst	r3, #2
	beq	.L1004
	.loc 1 4734 0
	ldrd	r0, [r5, #56]
	ldrd	r2, [r5, #16]
	cmp	r1, r3
	it	eq
	cmpeq	r0, r2
	bcs	.L998
	.loc 1 4735 0
	orrs	r3, r0, r1
	bne	.L999
	.loc 1 4736 0
	movs	r2, #0
	ldr	r1, [r5, #8]
	mov	r0, r5
	bl	remove_chain
.LVL1588:
	mov	r4, r0
.LVL1589:
	.loc 1 4737 0
	movs	r3, #0
	str	r3, [r5, #8]
.LVL1590:
.L1000:
	.loc 1 4747 0
	ldrd	r2, [r5, #56]
	strd	r2, [r5, #16]
	.loc 1 4748 0
	ldrb	r3, [r5, #48]	@ zero_extendqisi2
	orr	r3, r3, #64
	strb	r3, [r5, #48]
	.loc 1 4750 0
	cbnz	r4, .L1002
	.loc 1 4750 0 is_stmt 0 discriminator 1
	tst	r3, #128
	bne	.L1009
.L1002:
	.loc 1 4758 0 is_stmt 1
	cbz	r4, .L998
.LVL1591:
.L1003:
	.loc 1 4758 0 is_stmt 0 discriminator 1
	strb	r4, [r5, #49]
	b	.L998
.LVL1592:
.L999:
	.loc 1 4739 0 is_stmt 1
	ldr	r1, [r5, #64]
	mov	r0, r5
	bl	get_fat
.LVL1593:
	.loc 1 4741 0
	cmp	r0, #-1
	beq	.L1010
.L1001:
.LVL1594:
	.loc 1 4742 0
	cmp	r0, #1
	beq	.L1006
	.loc 1 4743 0
	cmp	r4, #0
	bne	.L1000
	.loc 1 4743 0 is_stmt 0 discriminator 1
	ldr	r3, [sp, #4]
	ldr	r3, [r3, #28]
	cmp	r3, r0
	bls	.L1000
	.loc 1 4744 0 is_stmt 1
	ldr	r2, [r5, #64]
	mov	r1, r0
	mov	r0, r5
.LVL1595:
	bl	remove_chain
.LVL1596:
	mov	r4, r0
.LVL1597:
	b	.L1000
.LVL1598:
.L1010:
	.loc 1 4741 0
	movs	r4, #1
	b	.L1001
.LVL1599:
.L1006:
	.loc 1 4742 0
	movs	r4, #2
.LVL1600:
	b	.L1000
.LVL1601:
.L1009:
	.loc 1 4751 0
	movs	r3, #1
	ldr	r2, [r5, #68]
	add	r1, r5, #80
	ldr	r0, [sp, #4]
	ldrb	r0, [r0, #1]	@ zero_extendqisi2
	bl	disk_write
.LVL1602:
	cbnz	r0, .L1007
	.loc 1 4754 0
	ldrb	r3, [r5, #48]	@ zero_extendqisi2
	and	r3, r3, #127
	strb	r3, [r5, #48]
	b	.L1002
.L1007:
	.loc 1 4752 0
	movs	r4, #1
.LVL1603:
	b	.L1003
.LVL1604:
.L1004:
	.loc 1 4732 0
	movs	r4, #7
.LVL1605:
.L998:
	.loc 1 4762 0
	mov	r0, r4
	add	sp, sp, #12
	.cfi_def_cfa_offset 12
	@ sp needed
	pop	{r4, r5, pc}
	.cfi_endproc
.LFE72:
	.size	f_truncate, .-f_truncate
	.section	.text.f_unlink,"ax",%progbits
	.align	1
	.global	f_unlink
	.syntax unified
	.thumb
	.thumb_func
	.fpu fpv4-sp-d16
	.type	f_unlink, %function
f_unlink:
.LFB73:
	.loc 1 4774 0
	.cfi_startproc
	@ args = 0, pretend = 0, frame = 240
	@ frame_needed = 0, uses_anonymous_args = 0
.LVL1606:
	push	{r4, r5, lr}
	.cfi_def_cfa_offset 12
	.cfi_offset 4, -12
	.cfi_offset 5, -8
	.cfi_offset 14, -4
	sub	sp, sp, #244
	.cfi_def_cfa_offset 256
	str	r0, [sp, #4]
.LVL1607:
	.loc 1 4786 0
	movs	r2, #2
	add	r1, sp, #60
	add	r0, sp, #4
.LVL1608:
	bl	find_volume
.LVL1609:
	.loc 1 4787 0
	mov	r4, r0
	cbz	r0, .L1023
.LVL1610:
.L1012:
	.loc 1 4856 0
	mov	r0, r4
	add	sp, sp, #244
	.cfi_remember_state
	.cfi_def_cfa_offset 12
	@ sp needed
	pop	{r4, r5, pc}
.LVL1611:
.L1023:
	.cfi_restore_state
	.loc 1 4788 0
	ldr	r3, [sp, #60]
	str	r3, [sp, #152]
	.loc 1 4790 0
	ldr	r1, [sp, #4]
	add	r0, sp, #152
.LVL1612:
	bl	follow_path
.LVL1613:
	.loc 1 4797 0
	mov	r4, r0
	cmp	r0, #0
	bne	.L1012
	.loc 1 4798 0
	ldrsb	r3, [sp, #227]
	cmp	r3, #0
	blt	.L1019
	.loc 1 4801 0
	ldrb	r3, [sp, #158]	@ zero_extendqisi2
	tst	r3, #1
	bne	.L1020
.LVL1614:
	.loc 1 4807 0
	ldr	r0, [sp, #60]
	str	r0, [sp, #8]
	.loc 1 4808 0
	ldrb	r3, [r0]	@ zero_extendqisi2
	cmp	r3, #4
	beq	.L1024
	.loc 1 4814 0
	ldr	r1, [sp, #212]
	bl	ld_clust
.LVL1615:
	mov	r5, r0
.LVL1616:
.L1015:
	.loc 1 4816 0
	ldrb	r3, [sp, #158]	@ zero_extendqisi2
	tst	r3, #16
	beq	.L1013
	.loc 1 4823 0
	ldr	r3, [sp, #60]
	str	r3, [sp, #64]
	.loc 1 4824 0
	str	r5, [sp, #72]
	.loc 1 4826 0
	ldrb	r3, [r3]	@ zero_extendqisi2
	cmp	r3, #4
	beq	.L1025
.L1016:
	.loc 1 4831 0
	movs	r1, #0
	add	r0, sp, #64
	bl	dir_sdi
.LVL1617:
	.loc 1 4832 0
	mov	r4, r0
	cbnz	r0, .L1013
	.loc 1 4833 0
	movs	r1, #0
	add	r0, sp, #64
.LVL1618:
	bl	dir_read
.LVL1619:
	.loc 1 4834 0
	mov	r4, r0
	cbz	r0, .L1021
	.loc 1 4835 0
	cmp	r0, #4
	bne	.L1013
	b	.L1017
.LVL1620:
.L1024:
	.loc 1 4809 0
	add	r1, sp, #8
	bl	init_alloc_info
.LVL1621:
	.loc 1 4810 0
	ldr	r5, [sp, #16]
.LVL1622:
	b	.L1015
.L1025:
	.loc 1 4827 0
	ldrd	r2, [sp, #24]
	strd	r2, [sp, #80]
	.loc 1 4828 0
	ldrb	r3, [sp, #15]	@ zero_extendqisi2
	strb	r3, [sp, #71]
	b	.L1016
.LVL1623:
.L1019:
	.loc 1 4777 0
	movs	r5, #0
	.loc 1 4799 0
	movs	r4, #6
.LVL1624:
.L1013:
	.loc 1 4840 0
	cmp	r4, #0
	bne	.L1012
.LVL1625:
.L1017:
	.loc 1 4841 0
	add	r0, sp, #152
	bl	dir_remove
.LVL1626:
	.loc 1 4842 0
	mov	r4, r0
	cbnz	r0, .L1018
	.loc 1 4842 0 is_stmt 0 discriminator 1
	cbnz	r5, .L1026
.LVL1627:
.L1018:
	.loc 1 4849 0 is_stmt 1
	cmp	r4, #0
	bne	.L1012
	.loc 1 4849 0 is_stmt 0 discriminator 1
	ldr	r0, [sp, #60]
	bl	sync_fs
.LVL1628:
	mov	r4, r0
.LVL1629:
	b	.L1012
.LVL1630:
.L1020:
	.loc 1 4777 0 is_stmt 1
	movs	r5, #0
	.loc 1 4802 0
	movs	r4, #7
	b	.L1013
.LVL1631:
.L1021:
	.loc 1 4834 0
	movs	r4, #7
	b	.L1013
.L1026:
	.loc 1 4844 0
	movs	r2, #0
	mov	r1, r5
	add	r0, sp, #8
.LVL1632:
	bl	remove_chain
.LVL1633:
	mov	r4, r0
.LVL1634:
	b	.L1018
	.cfi_endproc
.LFE73:
	.size	f_unlink, .-f_unlink
	.section	.text.f_mkdir,"ax",%progbits
	.align	1
	.global	f_mkdir
	.syntax unified
	.thumb
	.thumb_func
	.fpu fpv4-sp-d16
	.type	f_mkdir, %function
f_mkdir:
.LFB74:
	.loc 1 4868 0
	.cfi_startproc
	@ args = 0, pretend = 0, frame = 152
	@ frame_needed = 0, uses_anonymous_args = 0
.LVL1635:
	push	{r4, r5, r6, lr}
	.cfi_def_cfa_offset 16
	.cfi_offset 4, -16
	.cfi_offset 5, -12
	.cfi_offset 6, -8
	.cfi_offset 14, -4
	sub	sp, sp, #152
	.cfi_def_cfa_offset 168
	str	r0, [sp, #4]
	.loc 1 4877 0
	movs	r2, #2
	add	r1, sp, #12
	add	r0, sp, #4
.LVL1636:
	bl	find_volume
.LVL1637:
	.loc 1 4878 0
	mov	r4, r0
	cbz	r0, .L1043
.LVL1638:
.L1028:
	.loc 1 4940 0
	mov	r0, r4
	add	sp, sp, #152
	.cfi_remember_state
	.cfi_def_cfa_offset 16
	@ sp needed
	pop	{r4, r5, r6, pc}
.LVL1639:
.L1043:
	.cfi_restore_state
	.loc 1 4879 0
	ldr	r3, [sp, #12]
	str	r3, [sp, #64]
	.loc 1 4881 0
	ldr	r1, [sp, #4]
	add	r0, sp, #64
.LVL1640:
	bl	follow_path
.LVL1641:
	.loc 1 4882 0
	cmp	r0, #0
	beq	.L1037
	.loc 1 4886 0
	cmp	r0, #4
	beq	.L1044
	.loc 1 4881 0
	mov	r4, r0
	b	.L1028
.L1044:
	.loc 1 4887 0
	add	r0, sp, #152
.LVL1642:
	ldr	r3, [sp, #12]
	str	r3, [r0, #-136]!
	.loc 1 4888 0
	movs	r1, #0
	bl	create_chain
.LVL1643:
	.loc 1 4890 0
	mov	r5, r0
	cbnz	r0, .L1029
	movs	r4, #7
.L1029:
.LVL1644:
	.loc 1 4891 0
	cmp	r5, #1
	beq	.L1045
.LVL1645:
.L1030:
	.loc 1 4892 0
	cmp	r5, #-1
	beq	.L1046
.LVL1646:
.L1031:
	.loc 1 4893 0
	bl	get_fattime
.LVL1647:
	mov	r6, r0
.LVL1648:
	.loc 1 4894 0
	cbz	r4, .L1047
.LVL1649:
.L1032:
	.loc 1 4911 0
	cmp	r4, #0
	bne	.L1034
	.loc 1 4913 0
	ldr	r3, [sp, #12]
	ldrb	r2, [r3]	@ zero_extendqisi2
	cmp	r2, #4
	beq	.L1048
	.loc 1 4924 0
	mov	r1, r6
	ldr	r0, [sp, #124]
	adds	r0, r0, #22
	bl	st_dword
.LVL1650:
	.loc 1 4925 0
	mov	r2, r5
	ldr	r1, [sp, #124]
	ldr	r0, [sp, #12]
	bl	st_clust
.LVL1651:
	.loc 1 4926 0
	ldr	r3, [sp, #124]
	movs	r2, #16
	strb	r2, [r3, #11]
	.loc 1 4927 0
	ldr	r3, [sp, #12]
	movs	r2, #1
	strb	r2, [r3, #3]
.L1036:
	.loc 1 4929 0
	cmp	r4, #0
	bne	.L1028
	.loc 1 4930 0
	ldr	r0, [sp, #12]
	bl	sync_fs
.LVL1652:
	mov	r4, r0
.LVL1653:
	b	.L1028
.LVL1654:
.L1045:
	.loc 1 4891 0
	movs	r4, #2
.LVL1655:
	b	.L1030
.LVL1656:
.L1046:
	.loc 1 4892 0
	movs	r4, #1
.LVL1657:
	b	.L1031
.LVL1658:
.L1047:
	.loc 1 4895 0
	mov	r1, r5
	ldr	r0, [sp, #12]
.LVL1659:
	bl	dir_clear
.LVL1660:
	.loc 1 4896 0
	mov	r4, r0
	cmp	r0, #0
	bne	.L1032
	.loc 1 4897 0
	ldr	r0, [sp, #12]
.LVL1661:
	ldrb	r3, [r0]	@ zero_extendqisi2
	cmp	r3, #4
	bne	.L1049
.L1033:
	.loc 1 4908 0
	add	r0, sp, #64
	bl	dir_register
.LVL1662:
	mov	r4, r0
.LVL1663:
	b	.L1032
.LVL1664:
.L1049:
	.loc 1 4898 0
	movs	r2, #11
	movs	r1, #32
	adds	r0, r0, #60
	bl	mem_set
.LVL1665:
	.loc 1 4899 0
	ldr	r0, [sp, #12]
	movs	r4, #46
	strb	r4, [r0, #60]
	.loc 1 4900 0
	movs	r3, #16
	strb	r3, [r0, #71]
	.loc 1 4901 0
	mov	r1, r6
	adds	r0, r0, #82
	bl	st_dword
.LVL1666:
	.loc 1 4902 0
	ldr	r0, [sp, #12]
	mov	r2, r5
	add	r1, r0, #60
	bl	st_clust
.LVL1667:
	.loc 1 4903 0
	ldr	r0, [sp, #12]
	movs	r2, #32
	add	r1, r0, #60
	adds	r0, r0, #92
	bl	mem_cpy
.LVL1668:
	.loc 1 4904 0
	ldr	r0, [sp, #12]
	strb	r4, [r0, #93]
.LVL1669:
	.loc 1 4905 0
	ldr	r2, [sp, #72]
	add	r1, r0, #92
	bl	st_clust
.LVL1670:
	.loc 1 4906 0
	ldr	r3, [sp, #12]
	movs	r2, #1
	strb	r2, [r3, #3]
	b	.L1033
.LVL1671:
.L1048:
	.loc 1 4914 0
	ldr	r0, [r3, #16]
	mov	r1, r6
	adds	r0, r0, #12
	bl	st_dword
.LVL1672:
	.loc 1 4915 0
	ldr	r3, [sp, #12]
	ldr	r0, [r3, #16]
	mov	r1, r5
	adds	r0, r0, #52
	bl	st_dword
.LVL1673:
	.loc 1 4916 0
	ldr	r3, [sp, #12]
	ldr	r0, [r3, #16]
	ldrh	r1, [r3, #10]
	lsls	r1, r1, #9
	adds	r0, r0, #56
	bl	st_dword
.LVL1674:
	.loc 1 4917 0
	ldr	r3, [sp, #12]
	ldr	r0, [r3, #16]
	ldrh	r1, [r3, #10]
	lsls	r1, r1, #9
	adds	r0, r0, #40
	bl	st_dword
.LVL1675:
	.loc 1 4918 0
	ldr	r3, [sp, #12]
	ldr	r2, [r3, #16]
	movs	r1, #3
	strb	r1, [r2, #33]
	.loc 1 4919 0
	ldr	r3, [r3, #16]
	movs	r2, #16
	strb	r2, [r3, #4]
	.loc 1 4920 0
	add	r0, sp, #64
	bl	store_xdir
.LVL1676:
	mov	r4, r0
.LVL1677:
	b	.L1036
.L1034:
	.loc 1 4933 0
	movs	r2, #0
	mov	r1, r5
	add	r0, sp, #16
	bl	remove_chain
.LVL1678:
	b	.L1028
.LVL1679:
.L1037:
	.loc 1 4882 0
	movs	r4, #8
	b	.L1028
	.cfi_endproc
.LFE74:
	.size	f_mkdir, .-f_mkdir
	.section	.text.f_rename,"ax",%progbits
	.align	1
	.global	f_rename
	.syntax unified
	.thumb
	.thumb_func
	.fpu fpv4-sp-d16
	.type	f_rename, %function
f_rename:
.LFB75:
	.loc 1 4953 0
	.cfi_startproc
	@ args = 0, pretend = 0, frame = 256
	@ frame_needed = 0, uses_anonymous_args = 0
.LVL1680:
	push	{r4, r5, r6, r7, lr}
	.cfi_def_cfa_offset 20
	.cfi_offset 4, -20
	.cfi_offset 5, -16
	.cfi_offset 6, -12
	.cfi_offset 7, -8
	.cfi_offset 14, -4
	sub	sp, sp, #260
	.cfi_def_cfa_offset 280
	str	r0, [sp, #4]
	str	r1, [sp]
	.loc 1 4962 0
	mov	r0, sp
.LVL1681:
	bl	get_ldnumber
.LVL1682:
	.loc 1 4963 0
	movs	r2, #2
	add	r1, sp, #76
	add	r0, sp, #4
	bl	find_volume
.LVL1683:
	.loc 1 4964 0
	mov	r4, r0
	cbz	r0, .L1066
.LVL1684:
.L1051:
	.loc 1 5045 0
	mov	r0, r4
	add	sp, sp, #260
	.cfi_remember_state
	.cfi_def_cfa_offset 20
	@ sp needed
	pop	{r4, r5, r6, r7, pc}
.LVL1685:
.L1066:
	.cfi_restore_state
	.loc 1 4965 0
	ldr	r3, [sp, #76]
	str	r3, [sp, #168]
	.loc 1 4967 0
	ldr	r1, [sp, #4]
	add	r0, sp, #168
.LVL1686:
	bl	follow_path
.LVL1687:
	.loc 1 4968 0
	mov	r4, r0
	cbnz	r0, .L1052
	.loc 1 4968 0 is_stmt 0 discriminator 1
	ldrb	r3, [sp, #243]	@ zero_extendqisi2
	tst	r3, #160
	bne	.L1061
.L1052:
.LVL1688:
	.loc 1 4974 0 is_stmt 1
	cmp	r4, #0
	bne	.L1051
	.loc 1 4976 0
	ldr	r3, [sp, #76]
	ldrb	r2, [r3]	@ zero_extendqisi2
	cmp	r2, #4
	beq	.L1067
	.loc 1 5002 0
	movs	r2, #32
	ldr	r1, [sp, #228]
	add	r0, sp, #12
	bl	mem_cpy
.LVL1689:
	.loc 1 5003 0
	movs	r2, #88
	add	r1, sp, #168
	add	r0, sp, #80
	bl	mem_cpy
.LVL1690:
	.loc 1 5004 0
	ldr	r1, [sp]
	add	r0, sp, #80
	bl	follow_path
.LVL1691:
	.loc 1 5005 0
	mov	r4, r0
	cmp	r0, #0
	bne	.L1058
	.loc 1 5006 0
	ldr	r2, [sp, #88]
	ldr	r3, [sp, #176]
	cmp	r2, r3
	beq	.L1068
	movs	r4, #8
	b	.L1055
.LVL1692:
.L1067:
.LBB12:
	.loc 1 4980 0
	movs	r2, #64
	ldr	r1, [r3, #16]
	add	r0, sp, #12
	bl	mem_cpy
.LVL1693:
	.loc 1 4981 0
	movs	r2, #88
	add	r1, sp, #168
	add	r0, sp, #80
	bl	mem_cpy
.LVL1694:
	.loc 1 4982 0
	ldr	r1, [sp]
	add	r0, sp, #80
	bl	follow_path
.LVL1695:
	.loc 1 4983 0
	mov	r4, r0
	cbnz	r0, .L1054
	.loc 1 4984 0
	ldr	r2, [sp, #88]
	ldr	r3, [sp, #176]
	cmp	r2, r3
	beq	.L1069
	movs	r4, #8
	b	.L1055
.L1069:
	.loc 1 4984 0 is_stmt 0 discriminator 1
	ldr	r2, [sp, #128]
	ldr	r3, [sp, #216]
	cmp	r2, r3
	beq	.L1056
	movs	r4, #8
	b	.L1055
.L1054:
	.loc 1 4986 0 is_stmt 1
	cmp	r0, #4
	bne	.L1055
.L1056:
	.loc 1 4987 0
	add	r0, sp, #80
.LVL1696:
	bl	dir_register
.LVL1697:
	.loc 1 4988 0
	mov	r4, r0
	cbnz	r0, .L1055
	.loc 1 4989 0
	ldr	r3, [sp, #76]
	ldr	r4, [r3, #16]
	ldrb	r7, [r4, #1]	@ zero_extendqisi2
.LVL1698:
	ldrb	r6, [r4, #35]	@ zero_extendqisi2
.LVL1699:
	.loc 1 4990 0
	add	r0, r4, #36
.LVL1700:
	bl	ld_word
.LVL1701:
	mov	r5, r0
.LVL1702:
	.loc 1 4991 0
	movs	r2, #64
	add	r1, sp, #12
	mov	r0, r4
	bl	mem_cpy
.LVL1703:
	.loc 1 4992 0
	ldr	r3, [sp, #76]
	ldr	r3, [r3, #16]
	strb	r7, [r3, #1]
	ldr	r3, [sp, #76]
	ldr	r2, [r3, #16]
	strb	r6, [r2, #35]
	.loc 1 4993 0
	ldr	r0, [r3, #16]
	mov	r1, r5
	adds	r0, r0, #36
	bl	st_word
.LVL1704:
	.loc 1 4994 0
	ldr	r3, [sp, #76]
	ldr	r2, [r3, #16]
	ldrb	r3, [r2, #4]	@ zero_extendqisi2
	tst	r3, #16
	bne	.L1057
	.loc 1 4994 0 is_stmt 0 discriminator 1
	orr	r3, r3, #32
	strb	r3, [r2, #4]
.L1057:
	.loc 1 4996 0 is_stmt 1
	add	r0, sp, #80
	bl	store_xdir
.LVL1705:
	mov	r4, r0
.LVL1706:
	b	.L1055
.LVL1707:
.L1068:
.LBE12:
	.loc 1 5006 0 discriminator 1
	ldr	r2, [sp, #128]
	ldr	r3, [sp, #216]
	cmp	r2, r3
	beq	.L1059
	movs	r4, #8
	b	.L1055
.L1058:
	.loc 1 5008 0
	cmp	r0, #4
	beq	.L1059
.LVL1708:
.L1055:
	.loc 1 5033 0
	cmp	r4, #0
	bne	.L1051
	.loc 1 5034 0
	add	r0, sp, #168
	bl	dir_remove
.LVL1709:
	.loc 1 5035 0
	mov	r4, r0
	cmp	r0, #0
	bne	.L1051
	.loc 1 5036 0
	ldr	r0, [sp, #76]
.LVL1710:
	bl	sync_fs
.LVL1711:
	mov	r4, r0
.LVL1712:
	b	.L1051
.LVL1713:
.L1059:
	.loc 1 5009 0
	add	r0, sp, #80
.LVL1714:
	bl	dir_register
.LVL1715:
	.loc 1 5010 0
	mov	r4, r0
	cmp	r0, #0
	bne	.L1055
	.loc 1 5011 0
	ldr	r5, [sp, #140]
.LVL1716:
	.loc 1 5012 0
	movs	r2, #19
	add	r1, sp, #25
	add	r0, r5, #13
.LVL1717:
	bl	mem_cpy
.LVL1718:
	.loc 1 5013 0
	ldrb	r3, [sp, #23]	@ zero_extendqisi2
	strb	r3, [r5, #11]
	.loc 1 5014 0
	tst	r3, #16
	bne	.L1060
	.loc 1 5014 0 is_stmt 0 discriminator 1
	orr	r3, r3, #32
	strb	r3, [r5, #11]
.L1060:
	.loc 1 5015 0 is_stmt 1
	ldr	r3, [sp, #76]
	movs	r2, #1
	strb	r2, [r3, #3]
	.loc 1 5016 0
	ldrb	r3, [r5, #11]	@ zero_extendqisi2
	tst	r3, #16
	beq	.L1055
	.loc 1 5016 0 is_stmt 0 discriminator 1
	ldr	r2, [sp, #176]
	ldr	r3, [sp, #88]
	cmp	r2, r3
	beq	.L1055
	.loc 1 5017 0 is_stmt 1
	ldr	r4, [sp, #76]
	mov	r1, r5
	mov	r0, r4
	bl	ld_clust
.LVL1719:
	mov	r1, r0
	mov	r0, r4
	bl	clst2sect
.LVL1720:
	.loc 1 5018 0
	mov	r1, r0
	cbz	r0, .L1064
	.loc 1 5022 0
	mov	r0, r4
.LVL1721:
	bl	move_window
.LVL1722:
	.loc 1 5023 0
	ldr	r3, [sp, #76]
	add	r1, r3, #92
.LVL1723:
	.loc 1 5024 0
	mov	r4, r0
	cmp	r0, #0
	bne	.L1055
	.loc 1 5024 0 is_stmt 0 discriminator 1
	ldrb	r2, [r3, #93]	@ zero_extendqisi2
	cmp	r2, #46
	bne	.L1055
	.loc 1 5025 0 is_stmt 1
	ldr	r2, [sp, #88]
	mov	r0, r3
.LVL1724:
	bl	st_clust
.LVL1725:
	.loc 1 5026 0
	ldr	r3, [sp, #76]
	movs	r2, #1
	strb	r2, [r3, #3]
	b	.L1055
.LVL1726:
.L1061:
	.loc 1 4968 0
	movs	r4, #6
	b	.L1051
.LVL1727:
.L1064:
	.loc 1 5019 0
	movs	r4, #2
	b	.L1051
	.cfi_endproc
.LFE75:
	.size	f_rename, .-f_rename
	.section	.rodata
	.align	2
	.set	.LANCHOR0,. + 0
	.type	LfnOfs, %object
	.size	LfnOfs, 13
LfnOfs:
	.byte	1
	.byte	3
	.byte	5
	.byte	7
	.byte	9
	.byte	14
	.byte	16
	.byte	18
	.byte	20
	.byte	22
	.byte	24
	.byte	28
	.byte	30
	.space	3
	.type	ExCvt, %object
	.size	ExCvt, 128
ExCvt:
	.byte	-128
	.byte	-127
	.byte	-126
	.byte	-125
	.byte	-124
	.byte	-123
	.byte	-122
	.byte	-121
	.byte	-120
	.byte	-119
	.byte	-118
	.byte	-117
	.byte	-116
	.byte	-115
	.byte	-114
	.byte	-113
	.byte	-112
	.byte	-111
	.byte	-110
	.byte	-109
	.byte	-108
	.byte	-107
	.byte	-106
	.byte	-105
	.byte	-104
	.byte	-103
	.byte	-102
	.byte	-101
	.byte	-100
	.byte	-99
	.byte	-98
	.byte	-97
	.byte	-128
	.byte	-127
	.byte	-126
	.byte	-125
	.byte	-124
	.byte	-123
	.byte	-122
	.byte	-121
	.byte	-120
	.byte	-119
	.byte	-118
	.byte	-117
	.byte	-116
	.byte	-115
	.byte	-114
	.byte	-113
	.byte	-80
	.byte	-79
	.byte	-78
	.byte	-77
	.byte	-76
	.byte	-75
	.byte	-74
	.byte	-73
	.byte	-72
	.byte	-71
	.byte	-70
	.byte	-69
	.byte	-68
	.byte	-67
	.byte	-66
	.byte	-65
	.byte	-64
	.byte	-63
	.byte	-62
	.byte	-61
	.byte	-60
	.byte	-59
	.byte	-58
	.byte	-57
	.byte	-56
	.byte	-55
	.byte	-54
	.byte	-53
	.byte	-52
	.byte	-51
	.byte	-50
	.byte	-49
	.byte	-48
	.byte	-47
	.byte	-46
	.byte	-45
	.byte	-44
	.byte	-43
	.byte	-42
	.byte	-41
	.byte	-40
	.byte	-39
	.byte	-38
	.byte	-37
	.byte	-36
	.byte	-35
	.byte	-34
	.byte	-33
	.byte	-112
	.byte	-111
	.byte	-110
	.byte	-109
	.byte	-108
	.byte	-107
	.byte	-106
	.byte	-105
	.byte	-104
	.byte	-103
	.byte	-102
	.byte	-101
	.byte	-100
	.byte	-99
	.byte	-98
	.byte	-97
	.byte	-16
	.byte	-16
	.byte	-14
	.byte	-14
	.byte	-12
	.byte	-12
	.byte	-10
	.byte	-10
	.byte	-8
	.byte	-7
	.byte	-6
	.byte	-5
	.byte	-4
	.byte	-3
	.byte	-2
	.byte	-1
	.bss
	.align	2
	.set	.LANCHOR1,. + 0
	.type	FatFs, %object
	.size	FatFs, 4
FatFs:
	.space	4
	.type	Fsid, %object
	.size	Fsid, 2
Fsid:
	.space	2
	.space	2
	.type	LfnBuf, %object
	.size	LfnBuf, 512
LfnBuf:
	.space	512
	.type	DirBuf, %object
	.size	DirBuf, 608
DirBuf:
	.space	608
	.section	.rodata.str1.4,"aMS",%progbits,1
	.align	2
.LC0:
	.ascii	"\353v\220EXFAT   \000"
.LC1:
	.ascii	"FAT\000"
.LC2:
	.ascii	"FAT32\000"
	.space	2
.LC3:
	.ascii	"\"*:<>?|\177\000"
	.space	3
.LC4:
	.ascii	"+,;=[]\000"
	.text
.Letext0:
	.file 2 "d:\\ac6\\systemworkbench\\plugins\\fr.ac6.mcu.externaltools.arm-none.win32_1.16.0.201807130628\\tools\\compiler\\arm-none-eabi\\include\\machine\\_default_types.h"
	.file 3 "d:\\ac6\\systemworkbench\\plugins\\fr.ac6.mcu.externaltools.arm-none.win32_1.16.0.201807130628\\tools\\compiler\\arm-none-eabi\\include\\sys\\_stdint.h"
	.file 4 "../Main/sdCard/fatFS/ff.h"
	.file 5 "../Main/sdCard/fatFS/diskio.h"